

Microchip MPLAB XC8 Assembler V2.20 build 20200408173844 
                                                                                               Sat Oct 10 13:53:33 2020

Microchip MPLAB XC8 C Compiler v2.20 (Free license) build 20200408173844 Og1 
     1                           	processor	16F18345
     2                           	pagewidth 120
     3                           	opt	flic
     4                           	psect	cinit,global,class=CODE,merge=1,delta=2
     5                           	psect	bssCOMMON,global,class=COMMON,space=1,delta=1,noexec
     6                           	psect	bssBANK0,global,class=BANK0,space=1,delta=1,noexec
     7                           	psect	clrtext,global,class=CODE,delta=2
     8                           	psect	cstackCOMMON,global,class=COMMON,space=1,delta=1,noexec
     9                           	psect	maintext,global,class=CODE,merge=1,split=1,delta=2
    10                           	psect	text1,local,class=CODE,merge=1,delta=2
    11                           	psect	text2,local,class=CODE,merge=1,delta=2
    12                           	psect	text3,local,class=CODE,merge=1,delta=2
    13                           	psect	text4,local,class=CODE,merge=1,delta=2
    14                           	psect	text5,local,class=CODE,merge=1,delta=2
    15                           	psect	text6,local,class=CODE,merge=1,delta=2
    16                           	psect	text7,local,class=CODE,merge=1,delta=2
    17                           	psect	text8,local,class=CODE,merge=1,delta=2
    18                           	psect	config,global,abs,ovrld,class=CONFIG,space=4,delta=2,noexec
    19                           	dabs	1,0x7E,2
    20  0000                     
    21                           ; Version 2.20
    22                           ; Generated 30/04/2020 GMT
    23                           ; 
    24                           ; Copyright © 2020, Microchip Technology Inc. and its subsidiaries ("Microchip")
    25                           ; All rights reserved.
    26                           ; 
    27                           ; This software is developed by Microchip Technology Inc. and its subsidiaries ("Microch
      +                          ip").
    28                           ; 
    29                           ; Redistribution and use in source and binary forms, with or without modification, are
    30                           ; permitted provided that the following conditions are met:
    31                           ; 
    32                           ;     1. Redistributions of source code must retain the above copyright notice, this lis
      +                          t of
    33                           ;        conditions and the following disclaimer.
    34                           ; 
    35                           ;     2. Redistributions in binary form must reproduce the above copyright notice, this 
      +                          list
    36                           ;        of conditions and the following disclaimer in the documentation and/or other
    37                           ;        materials provided with the distribution.
    38                           ; 
    39                           ;     3. Microchip's name may not be used to endorse or promote products derived from th
      +                          is
    40                           ;        software without specific prior written permission.
    41                           ; 
    42                           ; THIS SOFTWARE IS PROVIDED BY MICROCHIP "AS IS" AND ANY EXPRESS OR IMPLIED WARRANTIES,
    43                           ; INCLUDING, BUT NOT LIMITED TO, THE IMPLIED WARRANTIES OF MERCHANTABILITY AND FITNESS F
      +                          OR
    44                           ; PURPOSE ARE DISCLAIMED.  IN NO EVENT SHALL MICROCHIP BE LIABLE FOR ANY DIRECT, INDIREC
      +                          T,
    45                           ; INCIDENTAL, SPECIAL, EXEMPLARY, OR CONSEQUENTIAL DAMAGES (INCLUDING BUT NOT LIMITED TO
    46                           ; PROCUREMENT OF SUBSTITUTE GOODS OR SERVICES; LOSS OF USE, DATA OR PROFITS; OR BUSINESS
    47                           ; INTERRUPTION) HOWSOEVER CAUSED AND ON ANY THEORY OF LIABILITY, WHETHER IN CONTRACT, ST
      +                          RICT
    48                           ; LIABILITY, OR TORT (INCLUDING NEGLIGENCE OR OTHERWISE) ARISING IN ANY WAY OUT OF THE U
      +                          SE OF
    49                           ; THIS SOFTWARE, EVEN IF ADVISED OF THE POSSIBILITY OF SUCH DAMAGE.
    50                           ; 
    51                           ; 
    52                           ; Code-generator required, PIC16F18345 Definitions
    53                           ; 
    54                           ; SFR Addresses
    55  0000                     	;# 
    56  0001                     	;# 
    57  0002                     	;# 
    58  0003                     	;# 
    59  0004                     	;# 
    60  0005                     	;# 
    61  0006                     	;# 
    62  0007                     	;# 
    63  0008                     	;# 
    64  0009                     	;# 
    65  000A                     	;# 
    66  000B                     	;# 
    67  000C                     	;# 
    68  000D                     	;# 
    69  000E                     	;# 
    70  0010                     	;# 
    71  0011                     	;# 
    72  0012                     	;# 
    73  0013                     	;# 
    74  0014                     	;# 
    75  0015                     	;# 
    76  0015                     	;# 
    77  0016                     	;# 
    78  0016                     	;# 
    79  0017                     	;# 
    80  0018                     	;# 
    81  0019                     	;# 
    82  0019                     	;# 
    83  001A                     	;# 
    84  001B                     	;# 
    85  001C                     	;# 
    86  001D                     	;# 
    87  001E                     	;# 
    88  001F                     	;# 
    89  008C                     	;# 
    90  008D                     	;# 
    91  008E                     	;# 
    92  0090                     	;# 
    93  0091                     	;# 
    94  0092                     	;# 
    95  0093                     	;# 
    96  0094                     	;# 
    97  0097                     	;# 
    98  009B                     	;# 
    99  009B                     	;# 
   100  009C                     	;# 
   101  009D                     	;# 
   102  009E                     	;# 
   103  009F                     	;# 
   104  010C                     	;# 
   105  010D                     	;# 
   106  010E                     	;# 
   107  0111                     	;# 
   108  0112                     	;# 
   109  0113                     	;# 
   110  0114                     	;# 
   111  0115                     	;# 
   112  0116                     	;# 
   113  0117                     	;# 
   114  0118                     	;# 
   115  0119                     	;# 
   116  018C                     	;# 
   117  018D                     	;# 
   118  018E                     	;# 
   119  0197                     	;# 
   120  0199                     	;# 
   121  0199                     	;# 
   122  0199                     	;# 
   123  019A                     	;# 
   124  019A                     	;# 
   125  019A                     	;# 
   126  019B                     	;# 
   127  019B                     	;# 
   128  019B                     	;# 
   129  019B                     	;# 
   130  019B                     	;# 
   131  019C                     	;# 
   132  019C                     	;# 
   133  019C                     	;# 
   134  019D                     	;# 
   135  019D                     	;# 
   136  019D                     	;# 
   137  019E                     	;# 
   138  019E                     	;# 
   139  019E                     	;# 
   140  019F                     	;# 
   141  019F                     	;# 
   142  019F                     	;# 
   143  019F                     	;# 
   144  019F                     	;# 
   145  020C                     	;# 
   146  020D                     	;# 
   147  020E                     	;# 
   148  0211                     	;# 
   149  0211                     	;# 
   150  0212                     	;# 
   151  0212                     	;# 
   152  0213                     	;# 
   153  0213                     	;# 
   154  0214                     	;# 
   155  0214                     	;# 
   156  0215                     	;# 
   157  0215                     	;# 
   158  0215                     	;# 
   159  0215                     	;# 
   160  0216                     	;# 
   161  0216                     	;# 
   162  0217                     	;# 
   163  0217                     	;# 
   164  0219                     	;# 
   165  021A                     	;# 
   166  021B                     	;# 
   167  021C                     	;# 
   168  021D                     	;# 
   169  021D                     	;# 
   170  021E                     	;# 
   171  021F                     	;# 
   172  028C                     	;# 
   173  028D                     	;# 
   174  028E                     	;# 
   175  0291                     	;# 
   176  0291                     	;# 
   177  0292                     	;# 
   178  0293                     	;# 
   179  0294                     	;# 
   180  0295                     	;# 
   181  0295                     	;# 
   182  0296                     	;# 
   183  0297                     	;# 
   184  0298                     	;# 
   185  029F                     	;# 
   186  030C                     	;# 
   187  030D                     	;# 
   188  030E                     	;# 
   189  0311                     	;# 
   190  0311                     	;# 
   191  0312                     	;# 
   192  0313                     	;# 
   193  0314                     	;# 
   194  0315                     	;# 
   195  0315                     	;# 
   196  0316                     	;# 
   197  0317                     	;# 
   198  0318                     	;# 
   199  038C                     	;# 
   200  038D                     	;# 
   201  038E                     	;# 
   202  0391                     	;# 
   203  0392                     	;# 
   204  0393                     	;# 
   205  0394                     	;# 
   206  0395                     	;# 
   207  0396                     	;# 
   208  0397                     	;# 
   209  0398                     	;# 
   210  0399                     	;# 
   211  039A                     	;# 
   212  039C                     	;# 
   213  039D                     	;# 
   214  039E                     	;# 
   215  039F                     	;# 
   216  0411                     	;# 
   217  0411                     	;# 
   218  0412                     	;# 
   219  0413                     	;# 
   220  0414                     	;# 
   221  0415                     	;# 
   222  0416                     	;# 
   223  0417                     	;# 
   224  0418                     	;# 
   225  0418                     	;# 
   226  0419                     	;# 
   227  041A                     	;# 
   228  041B                     	;# 
   229  041C                     	;# 
   230  041D                     	;# 
   231  041E                     	;# 
   232  041F                     	;# 
   233  0498                     	;# 
   234  0498                     	;# 
   235  0499                     	;# 
   236  049A                     	;# 
   237  049B                     	;# 
   238  049B                     	;# 
   239  049C                     	;# 
   240  049D                     	;# 
   241  049E                     	;# 
   242  049F                     	;# 
   243  0617                     	;# 
   244  0618                     	;# 
   245  0619                     	;# 
   246  0619                     	;# 
   247  061A                     	;# 
   248  061B                     	;# 
   249  061C                     	;# 
   250  061C                     	;# 
   251  061F                     	;# 
   252  0691                     	;# 
   253  0692                     	;# 
   254  0693                     	;# 
   255  0694                     	;# 
   256  0695                     	;# 
   257  0696                     	;# 
   258  0697                     	;# 
   259  0698                     	;# 
   260  0699                     	;# 
   261  0711                     	;# 
   262  0712                     	;# 
   263  0713                     	;# 
   264  0714                     	;# 
   265  0715                     	;# 
   266  0716                     	;# 
   267  0717                     	;# 
   268  0718                     	;# 
   269  0719                     	;# 
   270  0891                     	;# 
   271  0891                     	;# 
   272  0891                     	;# 
   273  0891                     	;# 
   274  0891                     	;# 
   275  0891                     	;# 
   276  0892                     	;# 
   277  0892                     	;# 
   278  0892                     	;# 
   279  0893                     	;# 
   280  0893                     	;# 
   281  0893                     	;# 
   282  0893                     	;# 
   283  0893                     	;# 
   284  0893                     	;# 
   285  0894                     	;# 
   286  0894                     	;# 
   287  0894                     	;# 
   288  0895                     	;# 
   289  0895                     	;# 
   290  0895                     	;# 
   291  0896                     	;# 
   292  0896                     	;# 
   293  0896                     	;# 
   294  089B                     	;# 
   295  0911                     	;# 
   296  0912                     	;# 
   297  0913                     	;# 
   298  0914                     	;# 
   299  0915                     	;# 
   300  0916                     	;# 
   301  0918                     	;# 
   302  0919                     	;# 
   303  091A                     	;# 
   304  091B                     	;# 
   305  091C                     	;# 
   306  091D                     	;# 
   307  091E                     	;# 
   308  091F                     	;# 
   309  0E0F                     	;# 
   310  0E10                     	;# 
   311  0E11                     	;# 
   312  0E12                     	;# 
   313  0E13                     	;# 
   314  0E14                     	;# 
   315  0E15                     	;# 
   316  0E16                     	;# 
   317  0E17                     	;# 
   318  0E18                     	;# 
   319  0E19                     	;# 
   320  0E1A                     	;# 
   321  0E1B                     	;# 
   322  0E1C                     	;# 
   323  0E1D                     	;# 
   324  0E1E                     	;# 
   325  0E1F                     	;# 
   326  0E20                     	;# 
   327  0E21                     	;# 
   328  0E22                     	;# 
   329  0E24                     	;# 
   330  0E25                     	;# 
   331  0E28                     	;# 
   332  0E29                     	;# 
   333  0E2A                     	;# 
   334  0E2B                     	;# 
   335  0E2C                     	;# 
   336  0E2D                     	;# 
   337  0E2E                     	;# 
   338  0E2F                     	;# 
   339  0E90                     	;# 
   340  0E91                     	;# 
   341  0E92                     	;# 
   342  0E94                     	;# 
   343  0E95                     	;# 
   344  0E9C                     	;# 
   345  0E9D                     	;# 
   346  0E9E                     	;# 
   347  0E9F                     	;# 
   348  0EA0                     	;# 
   349  0EA1                     	;# 
   350  0EA2                     	;# 
   351  0EA3                     	;# 
   352  0EA4                     	;# 
   353  0EA5                     	;# 
   354  0EA6                     	;# 
   355  0EA7                     	;# 
   356  0F0F                     	;# 
   357  0F10                     	;# 
   358  0F11                     	;# 
   359  0F12                     	;# 
   360  0F13                     	;# 
   361  0F14                     	;# 
   362  0F15                     	;# 
   363  0F16                     	;# 
   364  0F17                     	;# 
   365  0F18                     	;# 
   366  0F19                     	;# 
   367  0F1A                     	;# 
   368  0F1B                     	;# 
   369  0F1C                     	;# 
   370  0F1D                     	;# 
   371  0F1E                     	;# 
   372  0F1F                     	;# 
   373  0F20                     	;# 
   374  0F21                     	;# 
   375  0F22                     	;# 
   376  0F23                     	;# 
   377  0F24                     	;# 
   378  0F25                     	;# 
   379  0F26                     	;# 
   380  0F27                     	;# 
   381  0F28                     	;# 
   382  0F29                     	;# 
   383  0F2A                     	;# 
   384  0F2B                     	;# 
   385  0F2C                     	;# 
   386  0F2D                     	;# 
   387  0F2E                     	;# 
   388  0F2F                     	;# 
   389  0F30                     	;# 
   390  0F31                     	;# 
   391  0F32                     	;# 
   392  0F33                     	;# 
   393  0F34                     	;# 
   394  0F35                     	;# 
   395  0F36                     	;# 
   396  0F37                     	;# 
   397  0FE4                     	;# 
   398  0FE5                     	;# 
   399  0FE6                     	;# 
   400  0FE7                     	;# 
   401  0FE8                     	;# 
   402  0FE9                     	;# 
   403  0FEA                     	;# 
   404  0FEB                     	;# 
   405  0FED                     	;# 
   406  0FEE                     	;# 
   407  0FEF                     	;# 
   408  0000                     	;# 
   409  0001                     	;# 
   410  0002                     	;# 
   411  0003                     	;# 
   412  0004                     	;# 
   413  0005                     	;# 
   414  0006                     	;# 
   415  0007                     	;# 
   416  0008                     	;# 
   417  0009                     	;# 
   418  000A                     	;# 
   419  000B                     	;# 
   420  000C                     	;# 
   421  000D                     	;# 
   422  000E                     	;# 
   423  0010                     	;# 
   424  0011                     	;# 
   425  0012                     	;# 
   426  0013                     	;# 
   427  0014                     	;# 
   428  0015                     	;# 
   429  0015                     	;# 
   430  0016                     	;# 
   431  0016                     	;# 
   432  0017                     	;# 
   433  0018                     	;# 
   434  0019                     	;# 
   435  0019                     	;# 
   436  001A                     	;# 
   437  001B                     	;# 
   438  001C                     	;# 
   439  001D                     	;# 
   440  001E                     	;# 
   441  001F                     	;# 
   442  008C                     	;# 
   443  008D                     	;# 
   444  008E                     	;# 
   445  0090                     	;# 
   446  0091                     	;# 
   447  0092                     	;# 
   448  0093                     	;# 
   449  0094                     	;# 
   450  0097                     	;# 
   451  009B                     	;# 
   452  009B                     	;# 
   453  009C                     	;# 
   454  009D                     	;# 
   455  009E                     	;# 
   456  009F                     	;# 
   457  010C                     	;# 
   458  010D                     	;# 
   459  010E                     	;# 
   460  0111                     	;# 
   461  0112                     	;# 
   462  0113                     	;# 
   463  0114                     	;# 
   464  0115                     	;# 
   465  0116                     	;# 
   466  0117                     	;# 
   467  0118                     	;# 
   468  0119                     	;# 
   469  018C                     	;# 
   470  018D                     	;# 
   471  018E                     	;# 
   472  0197                     	;# 
   473  0199                     	;# 
   474  0199                     	;# 
   475  0199                     	;# 
   476  019A                     	;# 
   477  019A                     	;# 
   478  019A                     	;# 
   479  019B                     	;# 
   480  019B                     	;# 
   481  019B                     	;# 
   482  019B                     	;# 
   483  019B                     	;# 
   484  019C                     	;# 
   485  019C                     	;# 
   486  019C                     	;# 
   487  019D                     	;# 
   488  019D                     	;# 
   489  019D                     	;# 
   490  019E                     	;# 
   491  019E                     	;# 
   492  019E                     	;# 
   493  019F                     	;# 
   494  019F                     	;# 
   495  019F                     	;# 
   496  019F                     	;# 
   497  019F                     	;# 
   498  020C                     	;# 
   499  020D                     	;# 
   500  020E                     	;# 
   501  0211                     	;# 
   502  0211                     	;# 
   503  0212                     	;# 
   504  0212                     	;# 
   505  0213                     	;# 
   506  0213                     	;# 
   507  0214                     	;# 
   508  0214                     	;# 
   509  0215                     	;# 
   510  0215                     	;# 
   511  0215                     	;# 
   512  0215                     	;# 
   513  0216                     	;# 
   514  0216                     	;# 
   515  0217                     	;# 
   516  0217                     	;# 
   517  0219                     	;# 
   518  021A                     	;# 
   519  021B                     	;# 
   520  021C                     	;# 
   521  021D                     	;# 
   522  021D                     	;# 
   523  021E                     	;# 
   524  021F                     	;# 
   525  028C                     	;# 
   526  028D                     	;# 
   527  028E                     	;# 
   528  0291                     	;# 
   529  0291                     	;# 
   530  0292                     	;# 
   531  0293                     	;# 
   532  0294                     	;# 
   533  0295                     	;# 
   534  0295                     	;# 
   535  0296                     	;# 
   536  0297                     	;# 
   537  0298                     	;# 
   538  029F                     	;# 
   539  030C                     	;# 
   540  030D                     	;# 
   541  030E                     	;# 
   542  0311                     	;# 
   543  0311                     	;# 
   544  0312                     	;# 
   545  0313                     	;# 
   546  0314                     	;# 
   547  0315                     	;# 
   548  0315                     	;# 
   549  0316                     	;# 
   550  0317                     	;# 
   551  0318                     	;# 
   552  038C                     	;# 
   553  038D                     	;# 
   554  038E                     	;# 
   555  0391                     	;# 
   556  0392                     	;# 
   557  0393                     	;# 
   558  0394                     	;# 
   559  0395                     	;# 
   560  0396                     	;# 
   561  0397                     	;# 
   562  0398                     	;# 
   563  0399                     	;# 
   564  039A                     	;# 
   565  039C                     	;# 
   566  039D                     	;# 
   567  039E                     	;# 
   568  039F                     	;# 
   569  0411                     	;# 
   570  0411                     	;# 
   571  0412                     	;# 
   572  0413                     	;# 
   573  0414                     	;# 
   574  0415                     	;# 
   575  0416                     	;# 
   576  0417                     	;# 
   577  0418                     	;# 
   578  0418                     	;# 
   579  0419                     	;# 
   580  041A                     	;# 
   581  041B                     	;# 
   582  041C                     	;# 
   583  041D                     	;# 
   584  041E                     	;# 
   585  041F                     	;# 
   586  0498                     	;# 
   587  0498                     	;# 
   588  0499                     	;# 
   589  049A                     	;# 
   590  049B                     	;# 
   591  049B                     	;# 
   592  049C                     	;# 
   593  049D                     	;# 
   594  049E                     	;# 
   595  049F                     	;# 
   596  0617                     	;# 
   597  0618                     	;# 
   598  0619                     	;# 
   599  0619                     	;# 
   600  061A                     	;# 
   601  061B                     	;# 
   602  061C                     	;# 
   603  061C                     	;# 
   604  061F                     	;# 
   605  0691                     	;# 
   606  0692                     	;# 
   607  0693                     	;# 
   608  0694                     	;# 
   609  0695                     	;# 
   610  0696                     	;# 
   611  0697                     	;# 
   612  0698                     	;# 
   613  0699                     	;# 
   614  0711                     	;# 
   615  0712                     	;# 
   616  0713                     	;# 
   617  0714                     	;# 
   618  0715                     	;# 
   619  0716                     	;# 
   620  0717                     	;# 
   621  0718                     	;# 
   622  0719                     	;# 
   623  0891                     	;# 
   624  0891                     	;# 
   625  0891                     	;# 
   626  0891                     	;# 
   627  0891                     	;# 
   628  0891                     	;# 
   629  0892                     	;# 
   630  0892                     	;# 
   631  0892                     	;# 
   632  0893                     	;# 
   633  0893                     	;# 
   634  0893                     	;# 
   635  0893                     	;# 
   636  0893                     	;# 
   637  0893                     	;# 
   638  0894                     	;# 
   639  0894                     	;# 
   640  0894                     	;# 
   641  0895                     	;# 
   642  0895                     	;# 
   643  0895                     	;# 
   644  0896                     	;# 
   645  0896                     	;# 
   646  0896                     	;# 
   647  089B                     	;# 
   648  0911                     	;# 
   649  0912                     	;# 
   650  0913                     	;# 
   651  0914                     	;# 
   652  0915                     	;# 
   653  0916                     	;# 
   654  0918                     	;# 
   655  0919                     	;# 
   656  091A                     	;# 
   657  091B                     	;# 
   658  091C                     	;# 
   659  091D                     	;# 
   660  091E                     	;# 
   661  091F                     	;# 
   662  0E0F                     	;# 
   663  0E10                     	;# 
   664  0E11                     	;# 
   665  0E12                     	;# 
   666  0E13                     	;# 
   667  0E14                     	;# 
   668  0E15                     	;# 
   669  0E16                     	;# 
   670  0E17                     	;# 
   671  0E18                     	;# 
   672  0E19                     	;# 
   673  0E1A                     	;# 
   674  0E1B                     	;# 
   675  0E1C                     	;# 
   676  0E1D                     	;# 
   677  0E1E                     	;# 
   678  0E1F                     	;# 
   679  0E20                     	;# 
   680  0E21                     	;# 
   681  0E22                     	;# 
   682  0E24                     	;# 
   683  0E25                     	;# 
   684  0E28                     	;# 
   685  0E29                     	;# 
   686  0E2A                     	;# 
   687  0E2B                     	;# 
   688  0E2C                     	;# 
   689  0E2D                     	;# 
   690  0E2E                     	;# 
   691  0E2F                     	;# 
   692  0E90                     	;# 
   693  0E91                     	;# 
   694  0E92                     	;# 
   695  0E94                     	;# 
   696  0E95                     	;# 
   697  0E9C                     	;# 
   698  0E9D                     	;# 
   699  0E9E                     	;# 
   700  0E9F                     	;# 
   701  0EA0                     	;# 
   702  0EA1                     	;# 
   703  0EA2                     	;# 
   704  0EA3                     	;# 
   705  0EA4                     	;# 
   706  0EA5                     	;# 
   707  0EA6                     	;# 
   708  0EA7                     	;# 
   709  0F0F                     	;# 
   710  0F10                     	;# 
   711  0F11                     	;# 
   712  0F12                     	;# 
   713  0F13                     	;# 
   714  0F14                     	;# 
   715  0F15                     	;# 
   716  0F16                     	;# 
   717  0F17                     	;# 
   718  0F18                     	;# 
   719  0F19                     	;# 
   720  0F1A                     	;# 
   721  0F1B                     	;# 
   722  0F1C                     	;# 
   723  0F1D                     	;# 
   724  0F1E                     	;# 
   725  0F1F                     	;# 
   726  0F20                     	;# 
   727  0F21                     	;# 
   728  0F22                     	;# 
   729  0F23                     	;# 
   730  0F24                     	;# 
   731  0F25                     	;# 
   732  0F26                     	;# 
   733  0F27                     	;# 
   734  0F28                     	;# 
   735  0F29                     	;# 
   736  0F2A                     	;# 
   737  0F2B                     	;# 
   738  0F2C                     	;# 
   739  0F2D                     	;# 
   740  0F2E                     	;# 
   741  0F2F                     	;# 
   742  0F30                     	;# 
   743  0F31                     	;# 
   744  0F32                     	;# 
   745  0F33                     	;# 
   746  0F34                     	;# 
   747  0F35                     	;# 
   748  0F36                     	;# 
   749  0F37                     	;# 
   750  0FE4                     	;# 
   751  0FE5                     	;# 
   752  0FE6                     	;# 
   753  0FE7                     	;# 
   754  0FE8                     	;# 
   755  0FE9                     	;# 
   756  0FEA                     	;# 
   757  0FEB                     	;# 
   758  0FED                     	;# 
   759  0FEE                     	;# 
   760  0FEF                     	;# 
   761  0000                     	;# 
   762  0001                     	;# 
   763  0002                     	;# 
   764  0003                     	;# 
   765  0004                     	;# 
   766  0005                     	;# 
   767  0006                     	;# 
   768  0007                     	;# 
   769  0008                     	;# 
   770  0009                     	;# 
   771  000A                     	;# 
   772  000B                     	;# 
   773  000C                     	;# 
   774  000D                     	;# 
   775  000E                     	;# 
   776  0010                     	;# 
   777  0011                     	;# 
   778  0012                     	;# 
   779  0013                     	;# 
   780  0014                     	;# 
   781  0015                     	;# 
   782  0015                     	;# 
   783  0016                     	;# 
   784  0016                     	;# 
   785  0017                     	;# 
   786  0018                     	;# 
   787  0019                     	;# 
   788  0019                     	;# 
   789  001A                     	;# 
   790  001B                     	;# 
   791  001C                     	;# 
   792  001D                     	;# 
   793  001E                     	;# 
   794  001F                     	;# 
   795  008C                     	;# 
   796  008D                     	;# 
   797  008E                     	;# 
   798  0090                     	;# 
   799  0091                     	;# 
   800  0092                     	;# 
   801  0093                     	;# 
   802  0094                     	;# 
   803  0097                     	;# 
   804  009B                     	;# 
   805  009B                     	;# 
   806  009C                     	;# 
   807  009D                     	;# 
   808  009E                     	;# 
   809  009F                     	;# 
   810  010C                     	;# 
   811  010D                     	;# 
   812  010E                     	;# 
   813  0111                     	;# 
   814  0112                     	;# 
   815  0113                     	;# 
   816  0114                     	;# 
   817  0115                     	;# 
   818  0116                     	;# 
   819  0117                     	;# 
   820  0118                     	;# 
   821  0119                     	;# 
   822  018C                     	;# 
   823  018D                     	;# 
   824  018E                     	;# 
   825  0197                     	;# 
   826  0199                     	;# 
   827  0199                     	;# 
   828  0199                     	;# 
   829  019A                     	;# 
   830  019A                     	;# 
   831  019A                     	;# 
   832  019B                     	;# 
   833  019B                     	;# 
   834  019B                     	;# 
   835  019B                     	;# 
   836  019B                     	;# 
   837  019C                     	;# 
   838  019C                     	;# 
   839  019C                     	;# 
   840  019D                     	;# 
   841  019D                     	;# 
   842  019D                     	;# 
   843  019E                     	;# 
   844  019E                     	;# 
   845  019E                     	;# 
   846  019F                     	;# 
   847  019F                     	;# 
   848  019F                     	;# 
   849  019F                     	;# 
   850  019F                     	;# 
   851  020C                     	;# 
   852  020D                     	;# 
   853  020E                     	;# 
   854  0211                     	;# 
   855  0211                     	;# 
   856  0212                     	;# 
   857  0212                     	;# 
   858  0213                     	;# 
   859  0213                     	;# 
   860  0214                     	;# 
   861  0214                     	;# 
   862  0215                     	;# 
   863  0215                     	;# 
   864  0215                     	;# 
   865  0215                     	;# 
   866  0216                     	;# 
   867  0216                     	;# 
   868  0217                     	;# 
   869  0217                     	;# 
   870  0219                     	;# 
   871  021A                     	;# 
   872  021B                     	;# 
   873  021C                     	;# 
   874  021D                     	;# 
   875  021D                     	;# 
   876  021E                     	;# 
   877  021F                     	;# 
   878  028C                     	;# 
   879  028D                     	;# 
   880  028E                     	;# 
   881  0291                     	;# 
   882  0291                     	;# 
   883  0292                     	;# 
   884  0293                     	;# 
   885  0294                     	;# 
   886  0295                     	;# 
   887  0295                     	;# 
   888  0296                     	;# 
   889  0297                     	;# 
   890  0298                     	;# 
   891  029F                     	;# 
   892  030C                     	;# 
   893  030D                     	;# 
   894  030E                     	;# 
   895  0311                     	;# 
   896  0311                     	;# 
   897  0312                     	;# 
   898  0313                     	;# 
   899  0314                     	;# 
   900  0315                     	;# 
   901  0315                     	;# 
   902  0316                     	;# 
   903  0317                     	;# 
   904  0318                     	;# 
   905  038C                     	;# 
   906  038D                     	;# 
   907  038E                     	;# 
   908  0391                     	;# 
   909  0392                     	;# 
   910  0393                     	;# 
   911  0394                     	;# 
   912  0395                     	;# 
   913  0396                     	;# 
   914  0397                     	;# 
   915  0398                     	;# 
   916  0399                     	;# 
   917  039A                     	;# 
   918  039C                     	;# 
   919  039D                     	;# 
   920  039E                     	;# 
   921  039F                     	;# 
   922  0411                     	;# 
   923  0411                     	;# 
   924  0412                     	;# 
   925  0413                     	;# 
   926  0414                     	;# 
   927  0415                     	;# 
   928  0416                     	;# 
   929  0417                     	;# 
   930  0418                     	;# 
   931  0418                     	;# 
   932  0419                     	;# 
   933  041A                     	;# 
   934  041B                     	;# 
   935  041C                     	;# 
   936  041D                     	;# 
   937  041E                     	;# 
   938  041F                     	;# 
   939  0498                     	;# 
   940  0498                     	;# 
   941  0499                     	;# 
   942  049A                     	;# 
   943  049B                     	;# 
   944  049B                     	;# 
   945  049C                     	;# 
   946  049D                     	;# 
   947  049E                     	;# 
   948  049F                     	;# 
   949  0617                     	;# 
   950  0618                     	;# 
   951  0619                     	;# 
   952  0619                     	;# 
   953  061A                     	;# 
   954  061B                     	;# 
   955  061C                     	;# 
   956  061C                     	;# 
   957  061F                     	;# 
   958  0691                     	;# 
   959  0692                     	;# 
   960  0693                     	;# 
   961  0694                     	;# 
   962  0695                     	;# 
   963  0696                     	;# 
   964  0697                     	;# 
   965  0698                     	;# 
   966  0699                     	;# 
   967  0711                     	;# 
   968  0712                     	;# 
   969  0713                     	;# 
   970  0714                     	;# 
   971  0715                     	;# 
   972  0716                     	;# 
   973  0717                     	;# 
   974  0718                     	;# 
   975  0719                     	;# 
   976  0891                     	;# 
   977  0891                     	;# 
   978  0891                     	;# 
   979  0891                     	;# 
   980  0891                     	;# 
   981  0891                     	;# 
   982  0892                     	;# 
   983  0892                     	;# 
   984  0892                     	;# 
   985  0893                     	;# 
   986  0893                     	;# 
   987  0893                     	;# 
   988  0893                     	;# 
   989  0893                     	;# 
   990  0893                     	;# 
   991  0894                     	;# 
   992  0894                     	;# 
   993  0894                     	;# 
   994  0895                     	;# 
   995  0895                     	;# 
   996  0895                     	;# 
   997  0896                     	;# 
   998  0896                     	;# 
   999  0896                     	;# 
  1000  089B                     	;# 
  1001  0911                     	;# 
  1002  0912                     	;# 
  1003  0913                     	;# 
  1004  0914                     	;# 
  1005  0915                     	;# 
  1006  0916                     	;# 
  1007  0918                     	;# 
  1008  0919                     	;# 
  1009  091A                     	;# 
  1010  091B                     	;# 
  1011  091C                     	;# 
  1012  091D                     	;# 
  1013  091E                     	;# 
  1014  091F                     	;# 
  1015  0E0F                     	;# 
  1016  0E10                     	;# 
  1017  0E11                     	;# 
  1018  0E12                     	;# 
  1019  0E13                     	;# 
  1020  0E14                     	;# 
  1021  0E15                     	;# 
  1022  0E16                     	;# 
  1023  0E17                     	;# 
  1024  0E18                     	;# 
  1025  0E19                     	;# 
  1026  0E1A                     	;# 
  1027  0E1B                     	;# 
  1028  0E1C                     	;# 
  1029  0E1D                     	;# 
  1030  0E1E                     	;# 
  1031  0E1F                     	;# 
  1032  0E20                     	;# 
  1033  0E21                     	;# 
  1034  0E22                     	;# 
  1035  0E24                     	;# 
  1036  0E25                     	;# 
  1037  0E28                     	;# 
  1038  0E29                     	;# 
  1039  0E2A                     	;# 
  1040  0E2B                     	;# 
  1041  0E2C                     	;# 
  1042  0E2D                     	;# 
  1043  0E2E                     	;# 
  1044  0E2F                     	;# 
  1045  0E90                     	;# 
  1046  0E91                     	;# 
  1047  0E92                     	;# 
  1048  0E94                     	;# 
  1049  0E95                     	;# 
  1050  0E9C                     	;# 
  1051  0E9D                     	;# 
  1052  0E9E                     	;# 
  1053  0E9F                     	;# 
  1054  0EA0                     	;# 
  1055  0EA1                     	;# 
  1056  0EA2                     	;# 
  1057  0EA3                     	;# 
  1058  0EA4                     	;# 
  1059  0EA5                     	;# 
  1060  0EA6                     	;# 
  1061  0EA7                     	;# 
  1062  0F0F                     	;# 
  1063  0F10                     	;# 
  1064  0F11                     	;# 
  1065  0F12                     	;# 
  1066  0F13                     	;# 
  1067  0F14                     	;# 
  1068  0F15                     	;# 
  1069  0F16                     	;# 
  1070  0F17                     	;# 
  1071  0F18                     	;# 
  1072  0F19                     	;# 
  1073  0F1A                     	;# 
  1074  0F1B                     	;# 
  1075  0F1C                     	;# 
  1076  0F1D                     	;# 
  1077  0F1E                     	;# 
  1078  0F1F                     	;# 
  1079  0F20                     	;# 
  1080  0F21                     	;# 
  1081  0F22                     	;# 
  1082  0F23                     	;# 
  1083  0F24                     	;# 
  1084  0F25                     	;# 
  1085  0F26                     	;# 
  1086  0F27                     	;# 
  1087  0F28                     	;# 
  1088  0F29                     	;# 
  1089  0F2A                     	;# 
  1090  0F2B                     	;# 
  1091  0F2C                     	;# 
  1092  0F2D                     	;# 
  1093  0F2E                     	;# 
  1094  0F2F                     	;# 
  1095  0F30                     	;# 
  1096  0F31                     	;# 
  1097  0F32                     	;# 
  1098  0F33                     	;# 
  1099  0F34                     	;# 
  1100  0F35                     	;# 
  1101  0F36                     	;# 
  1102  0F37                     	;# 
  1103  0FE4                     	;# 
  1104  0FE5                     	;# 
  1105  0FE6                     	;# 
  1106  0FE7                     	;# 
  1107  0FE8                     	;# 
  1108  0FE9                     	;# 
  1109  0FEA                     	;# 
  1110  0FEB                     	;# 
  1111  0FED                     	;# 
  1112  0FEE                     	;# 
  1113  0FEF                     	;# 
  1114  0000                     	;# 
  1115  0001                     	;# 
  1116  0002                     	;# 
  1117  0003                     	;# 
  1118  0004                     	;# 
  1119  0005                     	;# 
  1120  0006                     	;# 
  1121  0007                     	;# 
  1122  0008                     	;# 
  1123  0009                     	;# 
  1124  000A                     	;# 
  1125  000B                     	;# 
  1126  000C                     	;# 
  1127  000D                     	;# 
  1128  000E                     	;# 
  1129  0010                     	;# 
  1130  0011                     	;# 
  1131  0012                     	;# 
  1132  0013                     	;# 
  1133  0014                     	;# 
  1134  0015                     	;# 
  1135  0015                     	;# 
  1136  0016                     	;# 
  1137  0016                     	;# 
  1138  0017                     	;# 
  1139  0018                     	;# 
  1140  0019                     	;# 
  1141  0019                     	;# 
  1142  001A                     	;# 
  1143  001B                     	;# 
  1144  001C                     	;# 
  1145  001D                     	;# 
  1146  001E                     	;# 
  1147  001F                     	;# 
  1148  008C                     	;# 
  1149  008D                     	;# 
  1150  008E                     	;# 
  1151  0090                     	;# 
  1152  0091                     	;# 
  1153  0092                     	;# 
  1154  0093                     	;# 
  1155  0094                     	;# 
  1156  0097                     	;# 
  1157  009B                     	;# 
  1158  009B                     	;# 
  1159  009C                     	;# 
  1160  009D                     	;# 
  1161  009E                     	;# 
  1162  009F                     	;# 
  1163  010C                     	;# 
  1164  010D                     	;# 
  1165  010E                     	;# 
  1166  0111                     	;# 
  1167  0112                     	;# 
  1168  0113                     	;# 
  1169  0114                     	;# 
  1170  0115                     	;# 
  1171  0116                     	;# 
  1172  0117                     	;# 
  1173  0118                     	;# 
  1174  0119                     	;# 
  1175  018C                     	;# 
  1176  018D                     	;# 
  1177  018E                     	;# 
  1178  0197                     	;# 
  1179  0199                     	;# 
  1180  0199                     	;# 
  1181  0199                     	;# 
  1182  019A                     	;# 
  1183  019A                     	;# 
  1184  019A                     	;# 
  1185  019B                     	;# 
  1186  019B                     	;# 
  1187  019B                     	;# 
  1188  019B                     	;# 
  1189  019B                     	;# 
  1190  019C                     	;# 
  1191  019C                     	;# 
  1192  019C                     	;# 
  1193  019D                     	;# 
  1194  019D                     	;# 
  1195  019D                     	;# 
  1196  019E                     	;# 
  1197  019E                     	;# 
  1198  019E                     	;# 
  1199  019F                     	;# 
  1200  019F                     	;# 
  1201  019F                     	;# 
  1202  019F                     	;# 
  1203  019F                     	;# 
  1204  020C                     	;# 
  1205  020D                     	;# 
  1206  020E                     	;# 
  1207  0211                     	;# 
  1208  0211                     	;# 
  1209  0212                     	;# 
  1210  0212                     	;# 
  1211  0213                     	;# 
  1212  0213                     	;# 
  1213  0214                     	;# 
  1214  0214                     	;# 
  1215  0215                     	;# 
  1216  0215                     	;# 
  1217  0215                     	;# 
  1218  0215                     	;# 
  1219  0216                     	;# 
  1220  0216                     	;# 
  1221  0217                     	;# 
  1222  0217                     	;# 
  1223  0219                     	;# 
  1224  021A                     	;# 
  1225  021B                     	;# 
  1226  021C                     	;# 
  1227  021D                     	;# 
  1228  021D                     	;# 
  1229  021E                     	;# 
  1230  021F                     	;# 
  1231  028C                     	;# 
  1232  028D                     	;# 
  1233  028E                     	;# 
  1234  0291                     	;# 
  1235  0291                     	;# 
  1236  0292                     	;# 
  1237  0293                     	;# 
  1238  0294                     	;# 
  1239  0295                     	;# 
  1240  0295                     	;# 
  1241  0296                     	;# 
  1242  0297                     	;# 
  1243  0298                     	;# 
  1244  029F                     	;# 
  1245  030C                     	;# 
  1246  030D                     	;# 
  1247  030E                     	;# 
  1248  0311                     	;# 
  1249  0311                     	;# 
  1250  0312                     	;# 
  1251  0313                     	;# 
  1252  0314                     	;# 
  1253  0315                     	;# 
  1254  0315                     	;# 
  1255  0316                     	;# 
  1256  0317                     	;# 
  1257  0318                     	;# 
  1258  038C                     	;# 
  1259  038D                     	;# 
  1260  038E                     	;# 
  1261  0391                     	;# 
  1262  0392                     	;# 
  1263  0393                     	;# 
  1264  0394                     	;# 
  1265  0395                     	;# 
  1266  0396                     	;# 
  1267  0397                     	;# 
  1268  0398                     	;# 
  1269  0399                     	;# 
  1270  039A                     	;# 
  1271  039C                     	;# 
  1272  039D                     	;# 
  1273  039E                     	;# 
  1274  039F                     	;# 
  1275  0411                     	;# 
  1276  0411                     	;# 
  1277  0412                     	;# 
  1278  0413                     	;# 
  1279  0414                     	;# 
  1280  0415                     	;# 
  1281  0416                     	;# 
  1282  0417                     	;# 
  1283  0418                     	;# 
  1284  0418                     	;# 
  1285  0419                     	;# 
  1286  041A                     	;# 
  1287  041B                     	;# 
  1288  041C                     	;# 
  1289  041D                     	;# 
  1290  041E                     	;# 
  1291  041F                     	;# 
  1292  0498                     	;# 
  1293  0498                     	;# 
  1294  0499                     	;# 
  1295  049A                     	;# 
  1296  049B                     	;# 
  1297  049B                     	;# 
  1298  049C                     	;# 
  1299  049D                     	;# 
  1300  049E                     	;# 
  1301  049F                     	;# 
  1302  0617                     	;# 
  1303  0618                     	;# 
  1304  0619                     	;# 
  1305  0619                     	;# 
  1306  061A                     	;# 
  1307  061B                     	;# 
  1308  061C                     	;# 
  1309  061C                     	;# 
  1310  061F                     	;# 
  1311  0691                     	;# 
  1312  0692                     	;# 
  1313  0693                     	;# 
  1314  0694                     	;# 
  1315  0695                     	;# 
  1316  0696                     	;# 
  1317  0697                     	;# 
  1318  0698                     	;# 
  1319  0699                     	;# 
  1320  0711                     	;# 
  1321  0712                     	;# 
  1322  0713                     	;# 
  1323  0714                     	;# 
  1324  0715                     	;# 
  1325  0716                     	;# 
  1326  0717                     	;# 
  1327  0718                     	;# 
  1328  0719                     	;# 
  1329  0891                     	;# 
  1330  0891                     	;# 
  1331  0891                     	;# 
  1332  0891                     	;# 
  1333  0891                     	;# 
  1334  0891                     	;# 
  1335  0892                     	;# 
  1336  0892                     	;# 
  1337  0892                     	;# 
  1338  0893                     	;# 
  1339  0893                     	;# 
  1340  0893                     	;# 
  1341  0893                     	;# 
  1342  0893                     	;# 
  1343  0893                     	;# 
  1344  0894                     	;# 
  1345  0894                     	;# 
  1346  0894                     	;# 
  1347  0895                     	;# 
  1348  0895                     	;# 
  1349  0895                     	;# 
  1350  0896                     	;# 
  1351  0896                     	;# 
  1352  0896                     	;# 
  1353  089B                     	;# 
  1354  0911                     	;# 
  1355  0912                     	;# 
  1356  0913                     	;# 
  1357  0914                     	;# 
  1358  0915                     	;# 
  1359  0916                     	;# 
  1360  0918                     	;# 
  1361  0919                     	;# 
  1362  091A                     	;# 
  1363  091B                     	;# 
  1364  091C                     	;# 
  1365  091D                     	;# 
  1366  091E                     	;# 
  1367  091F                     	;# 
  1368  0E0F                     	;# 
  1369  0E10                     	;# 
  1370  0E11                     	;# 
  1371  0E12                     	;# 
  1372  0E13                     	;# 
  1373  0E14                     	;# 
  1374  0E15                     	;# 
  1375  0E16                     	;# 
  1376  0E17                     	;# 
  1377  0E18                     	;# 
  1378  0E19                     	;# 
  1379  0E1A                     	;# 
  1380  0E1B                     	;# 
  1381  0E1C                     	;# 
  1382  0E1D                     	;# 
  1383  0E1E                     	;# 
  1384  0E1F                     	;# 
  1385  0E20                     	;# 
  1386  0E21                     	;# 
  1387  0E22                     	;# 
  1388  0E24                     	;# 
  1389  0E25                     	;# 
  1390  0E28                     	;# 
  1391  0E29                     	;# 
  1392  0E2A                     	;# 
  1393  0E2B                     	;# 
  1394  0E2C                     	;# 
  1395  0E2D                     	;# 
  1396  0E2E                     	;# 
  1397  0E2F                     	;# 
  1398  0E90                     	;# 
  1399  0E91                     	;# 
  1400  0E92                     	;# 
  1401  0E94                     	;# 
  1402  0E95                     	;# 
  1403  0E9C                     	;# 
  1404  0E9D                     	;# 
  1405  0E9E                     	;# 
  1406  0E9F                     	;# 
  1407  0EA0                     	;# 
  1408  0EA1                     	;# 
  1409  0EA2                     	;# 
  1410  0EA3                     	;# 
  1411  0EA4                     	;# 
  1412  0EA5                     	;# 
  1413  0EA6                     	;# 
  1414  0EA7                     	;# 
  1415  0F0F                     	;# 
  1416  0F10                     	;# 
  1417  0F11                     	;# 
  1418  0F12                     	;# 
  1419  0F13                     	;# 
  1420  0F14                     	;# 
  1421  0F15                     	;# 
  1422  0F16                     	;# 
  1423  0F17                     	;# 
  1424  0F18                     	;# 
  1425  0F19                     	;# 
  1426  0F1A                     	;# 
  1427  0F1B                     	;# 
  1428  0F1C                     	;# 
  1429  0F1D                     	;# 
  1430  0F1E                     	;# 
  1431  0F1F                     	;# 
  1432  0F20                     	;# 
  1433  0F21                     	;# 
  1434  0F22                     	;# 
  1435  0F23                     	;# 
  1436  0F24                     	;# 
  1437  0F25                     	;# 
  1438  0F26                     	;# 
  1439  0F27                     	;# 
  1440  0F28                     	;# 
  1441  0F29                     	;# 
  1442  0F2A                     	;# 
  1443  0F2B                     	;# 
  1444  0F2C                     	;# 
  1445  0F2D                     	;# 
  1446  0F2E                     	;# 
  1447  0F2F                     	;# 
  1448  0F30                     	;# 
  1449  0F31                     	;# 
  1450  0F32                     	;# 
  1451  0F33                     	;# 
  1452  0F34                     	;# 
  1453  0F35                     	;# 
  1454  0F36                     	;# 
  1455  0F37                     	;# 
  1456  0FE4                     	;# 
  1457  0FE5                     	;# 
  1458  0FE6                     	;# 
  1459  0FE7                     	;# 
  1460  0FE8                     	;# 
  1461  0FE9                     	;# 
  1462  0FEA                     	;# 
  1463  0FEB                     	;# 
  1464  0FED                     	;# 
  1465  0FEE                     	;# 
  1466  0FEF                     	;# 
  1467  0000                     	;# 
  1468  0001                     	;# 
  1469  0002                     	;# 
  1470  0003                     	;# 
  1471  0004                     	;# 
  1472  0005                     	;# 
  1473  0006                     	;# 
  1474  0007                     	;# 
  1475  0008                     	;# 
  1476  0009                     	;# 
  1477  000A                     	;# 
  1478  000B                     	;# 
  1479  000C                     	;# 
  1480  000D                     	;# 
  1481  000E                     	;# 
  1482  0010                     	;# 
  1483  0011                     	;# 
  1484  0012                     	;# 
  1485  0013                     	;# 
  1486  0014                     	;# 
  1487  0015                     	;# 
  1488  0015                     	;# 
  1489  0016                     	;# 
  1490  0016                     	;# 
  1491  0017                     	;# 
  1492  0018                     	;# 
  1493  0019                     	;# 
  1494  0019                     	;# 
  1495  001A                     	;# 
  1496  001B                     	;# 
  1497  001C                     	;# 
  1498  001D                     	;# 
  1499  001E                     	;# 
  1500  001F                     	;# 
  1501  008C                     	;# 
  1502  008D                     	;# 
  1503  008E                     	;# 
  1504  0090                     	;# 
  1505  0091                     	;# 
  1506  0092                     	;# 
  1507  0093                     	;# 
  1508  0094                     	;# 
  1509  0097                     	;# 
  1510  009B                     	;# 
  1511  009B                     	;# 
  1512  009C                     	;# 
  1513  009D                     	;# 
  1514  009E                     	;# 
  1515  009F                     	;# 
  1516  010C                     	;# 
  1517  010D                     	;# 
  1518  010E                     	;# 
  1519  0111                     	;# 
  1520  0112                     	;# 
  1521  0113                     	;# 
  1522  0114                     	;# 
  1523  0115                     	;# 
  1524  0116                     	;# 
  1525  0117                     	;# 
  1526  0118                     	;# 
  1527  0119                     	;# 
  1528  018C                     	;# 
  1529  018D                     	;# 
  1530  018E                     	;# 
  1531  0197                     	;# 
  1532  0199                     	;# 
  1533  0199                     	;# 
  1534  0199                     	;# 
  1535  019A                     	;# 
  1536  019A                     	;# 
  1537  019A                     	;# 
  1538  019B                     	;# 
  1539  019B                     	;# 
  1540  019B                     	;# 
  1541  019B                     	;# 
  1542  019B                     	;# 
  1543  019C                     	;# 
  1544  019C                     	;# 
  1545  019C                     	;# 
  1546  019D                     	;# 
  1547  019D                     	;# 
  1548  019D                     	;# 
  1549  019E                     	;# 
  1550  019E                     	;# 
  1551  019E                     	;# 
  1552  019F                     	;# 
  1553  019F                     	;# 
  1554  019F                     	;# 
  1555  019F                     	;# 
  1556  019F                     	;# 
  1557  020C                     	;# 
  1558  020D                     	;# 
  1559  020E                     	;# 
  1560  0211                     	;# 
  1561  0211                     	;# 
  1562  0212                     	;# 
  1563  0212                     	;# 
  1564  0213                     	;# 
  1565  0213                     	;# 
  1566  0214                     	;# 
  1567  0214                     	;# 
  1568  0215                     	;# 
  1569  0215                     	;# 
  1570  0215                     	;# 
  1571  0215                     	;# 
  1572  0216                     	;# 
  1573  0216                     	;# 
  1574  0217                     	;# 
  1575  0217                     	;# 
  1576  0219                     	;# 
  1577  021A                     	;# 
  1578  021B                     	;# 
  1579  021C                     	;# 
  1580  021D                     	;# 
  1581  021D                     	;# 
  1582  021E                     	;# 
  1583  021F                     	;# 
  1584  028C                     	;# 
  1585  028D                     	;# 
  1586  028E                     	;# 
  1587  0291                     	;# 
  1588  0291                     	;# 
  1589  0292                     	;# 
  1590  0293                     	;# 
  1591  0294                     	;# 
  1592  0295                     	;# 
  1593  0295                     	;# 
  1594  0296                     	;# 
  1595  0297                     	;# 
  1596  0298                     	;# 
  1597  029F                     	;# 
  1598  030C                     	;# 
  1599  030D                     	;# 
  1600  030E                     	;# 
  1601  0311                     	;# 
  1602  0311                     	;# 
  1603  0312                     	;# 
  1604  0313                     	;# 
  1605  0314                     	;# 
  1606  0315                     	;# 
  1607  0315                     	;# 
  1608  0316                     	;# 
  1609  0317                     	;# 
  1610  0318                     	;# 
  1611  038C                     	;# 
  1612  038D                     	;# 
  1613  038E                     	;# 
  1614  0391                     	;# 
  1615  0392                     	;# 
  1616  0393                     	;# 
  1617  0394                     	;# 
  1618  0395                     	;# 
  1619  0396                     	;# 
  1620  0397                     	;# 
  1621  0398                     	;# 
  1622  0399                     	;# 
  1623  039A                     	;# 
  1624  039C                     	;# 
  1625  039D                     	;# 
  1626  039E                     	;# 
  1627  039F                     	;# 
  1628  0411                     	;# 
  1629  0411                     	;# 
  1630  0412                     	;# 
  1631  0413                     	;# 
  1632  0414                     	;# 
  1633  0415                     	;# 
  1634  0416                     	;# 
  1635  0417                     	;# 
  1636  0418                     	;# 
  1637  0418                     	;# 
  1638  0419                     	;# 
  1639  041A                     	;# 
  1640  041B                     	;# 
  1641  041C                     	;# 
  1642  041D                     	;# 
  1643  041E                     	;# 
  1644  041F                     	;# 
  1645  0498                     	;# 
  1646  0498                     	;# 
  1647  0499                     	;# 
  1648  049A                     	;# 
  1649  049B                     	;# 
  1650  049B                     	;# 
  1651  049C                     	;# 
  1652  049D                     	;# 
  1653  049E                     	;# 
  1654  049F                     	;# 
  1655  0617                     	;# 
  1656  0618                     	;# 
  1657  0619                     	;# 
  1658  0619                     	;# 
  1659  061A                     	;# 
  1660  061B                     	;# 
  1661  061C                     	;# 
  1662  061C                     	;# 
  1663  061F                     	;# 
  1664  0691                     	;# 
  1665  0692                     	;# 
  1666  0693                     	;# 
  1667  0694                     	;# 
  1668  0695                     	;# 
  1669  0696                     	;# 
  1670  0697                     	;# 
  1671  0698                     	;# 
  1672  0699                     	;# 
  1673  0711                     	;# 
  1674  0712                     	;# 
  1675  0713                     	;# 
  1676  0714                     	;# 
  1677  0715                     	;# 
  1678  0716                     	;# 
  1679  0717                     	;# 
  1680  0718                     	;# 
  1681  0719                     	;# 
  1682  0891                     	;# 
  1683  0891                     	;# 
  1684  0891                     	;# 
  1685  0891                     	;# 
  1686  0891                     	;# 
  1687  0891                     	;# 
  1688  0892                     	;# 
  1689  0892                     	;# 
  1690  0892                     	;# 
  1691  0893                     	;# 
  1692  0893                     	;# 
  1693  0893                     	;# 
  1694  0893                     	;# 
  1695  0893                     	;# 
  1696  0893                     	;# 
  1697  0894                     	;# 
  1698  0894                     	;# 
  1699  0894                     	;# 
  1700  0895                     	;# 
  1701  0895                     	;# 
  1702  0895                     	;# 
  1703  0896                     	;# 
  1704  0896                     	;# 
  1705  0896                     	;# 
  1706  089B                     	;# 
  1707  0911                     	;# 
  1708  0912                     	;# 
  1709  0913                     	;# 
  1710  0914                     	;# 
  1711  0915                     	;# 
  1712  0916                     	;# 
  1713  0918                     	;# 
  1714  0919                     	;# 
  1715  091A                     	;# 
  1716  091B                     	;# 
  1717  091C                     	;# 
  1718  091D                     	;# 
  1719  091E                     	;# 
  1720  091F                     	;# 
  1721  0E0F                     	;# 
  1722  0E10                     	;# 
  1723  0E11                     	;# 
  1724  0E12                     	;# 
  1725  0E13                     	;# 
  1726  0E14                     	;# 
  1727  0E15                     	;# 
  1728  0E16                     	;# 
  1729  0E17                     	;# 
  1730  0E18                     	;# 
  1731  0E19                     	;# 
  1732  0E1A                     	;# 
  1733  0E1B                     	;# 
  1734  0E1C                     	;# 
  1735  0E1D                     	;# 
  1736  0E1E                     	;# 
  1737  0E1F                     	;# 
  1738  0E20                     	;# 
  1739  0E21                     	;# 
  1740  0E22                     	;# 
  1741  0E24                     	;# 
  1742  0E25                     	;# 
  1743  0E28                     	;# 
  1744  0E29                     	;# 
  1745  0E2A                     	;# 
  1746  0E2B                     	;# 
  1747  0E2C                     	;# 
  1748  0E2D                     	;# 
  1749  0E2E                     	;# 
  1750  0E2F                     	;# 
  1751  0E90                     	;# 
  1752  0E91                     	;# 
  1753  0E92                     	;# 
  1754  0E94                     	;# 
  1755  0E95                     	;# 
  1756  0E9C                     	;# 
  1757  0E9D                     	;# 
  1758  0E9E                     	;# 
  1759  0E9F                     	;# 
  1760  0EA0                     	;# 
  1761  0EA1                     	;# 
  1762  0EA2                     	;# 
  1763  0EA3                     	;# 
  1764  0EA4                     	;# 
  1765  0EA5                     	;# 
  1766  0EA6                     	;# 
  1767  0EA7                     	;# 
  1768  0F0F                     	;# 
  1769  0F10                     	;# 
  1770  0F11                     	;# 
  1771  0F12                     	;# 
  1772  0F13                     	;# 
  1773  0F14                     	;# 
  1774  0F15                     	;# 
  1775  0F16                     	;# 
  1776  0F17                     	;# 
  1777  0F18                     	;# 
  1778  0F19                     	;# 
  1779  0F1A                     	;# 
  1780  0F1B                     	;# 
  1781  0F1C                     	;# 
  1782  0F1D                     	;# 
  1783  0F1E                     	;# 
  1784  0F1F                     	;# 
  1785  0F20                     	;# 
  1786  0F21                     	;# 
  1787  0F22                     	;# 
  1788  0F23                     	;# 
  1789  0F24                     	;# 
  1790  0F25                     	;# 
  1791  0F26                     	;# 
  1792  0F27                     	;# 
  1793  0F28                     	;# 
  1794  0F29                     	;# 
  1795  0F2A                     	;# 
  1796  0F2B                     	;# 
  1797  0F2C                     	;# 
  1798  0F2D                     	;# 
  1799  0F2E                     	;# 
  1800  0F2F                     	;# 
  1801  0F30                     	;# 
  1802  0F31                     	;# 
  1803  0F32                     	;# 
  1804  0F33                     	;# 
  1805  0F34                     	;# 
  1806  0F35                     	;# 
  1807  0F36                     	;# 
  1808  0F37                     	;# 
  1809  0FE4                     	;# 
  1810  0FE5                     	;# 
  1811  0FE6                     	;# 
  1812  0FE7                     	;# 
  1813  0FE8                     	;# 
  1814  0FE9                     	;# 
  1815  0FEA                     	;# 
  1816  0FEB                     	;# 
  1817  0FED                     	;# 
  1818  0FEE                     	;# 
  1819  0FEF                     	;# 
  1820  000E                     _PORTC	set	14
  1821  000B                     _INTCONbits	set	11
  1822  006C                     _RB4	set	108
  1823  006D                     _RB5	set	109
  1824  006F                     _RB7	set	111
  1825  006E                     _RB6	set	110
  1826  008D                     _TRISB	set	141
  1827  008C                     _TRISA	set	140
  1828  008E                     _TRISC	set	142
  1829  04E8                     _ADON	set	1256
  1830  048E                     _ADIE	set	1166
  1831  018E                     _ANSELC	set	398
  1832  018D                     _ANSELB	set	397
  1833  018C                     _ANSELA	set	396
  1834  020E                     _WPUC	set	526
  1835  020D                     _WPUB	set	525
  1836  020C                     _WPUA	set	524
  1837                           
  1838                           	psect	cinit
  1839  07F3                     start_initialization:	
  1840                           ; #config settings
  1841                           
  1842  07F3                     __initialization:
  1843                           
  1844                           ; Clear objects allocated to COMMON
  1845  07F3  01F8               	clrf	__pbssCOMMON& (0+127)
  1846  07F4  01F9               	clrf	(__pbssCOMMON+1)& (0+127)
  1847                           
  1848                           ; Clear objects allocated to BANK0
  1849  07F5  3020               	movlw	low __pbssBANK0
  1850  07F6  0084               	movwf	4
  1851  07F7  3000               	movlw	high __pbssBANK0
  1852  07F8  0085               	movwf	5
  1853  07F9  303C               	movlw	60
  1854  07FA  3187  272F  3187   	fcall	clear_ram0
  1855  07FD                     end_of_initialization:	
  1856                           ;End of C runtime variable initialization code
  1857                           
  1858  07FD                     __end_of__initialization:
  1859  07FD  0020               	movlb	0
  1860  07FE  3187  2F62         	ljmp	_main	;jump to C main() function
  1861                           
  1862                           	psect	bssCOMMON
  1863  0078                     __pbssCOMMON:
  1864  0078                     _r:
  1865  0078                     	ds	1
  1866  0079                     _seqenceLength:
  1867  0079                     	ds	1
  1868                           
  1869                           	psect	bssBANK0
  1870  0020                     __pbssBANK0:
  1871  0020                     _colorSequence:
  1872  0020                     	ds	60
  1873                           
  1874                           	psect	clrtext
  1875  072F                     clear_ram0:	
  1876                           ;	Called with FSR0 containing the base address, and
  1877                           ;	WREG with the size to clear
  1878                           
  1879  072F  0064               	clrwdt	;clear the watchdog before getting into this loop
  1880  0730                     clrloop0:
  1881  0730  0180               	clrf	0	;clear RAM location pointed to by FSR
  1882  0731  3101               	addfsr 0,1
  1883  0732  0B89               	decfsz	9,f	;Have we reached the end of clearing yet?
  1884  0733  2F30               	goto	clrloop0	;have we reached the end yet?
  1885  0734  3400               	retlw	0	;all done for this memory range, return
  1886                           
  1887                           	psect	cstackCOMMON
  1888  0070                     __pcstackCOMMON:
  1889  0070                     ?_powerOnSelfTest:
  1890  0070                     ??_powerOnSelfTest:	
  1891                           ; 1 bytes @ 0x0
  1892                           
  1893  0070                     ?_ConfigureOscillator:	
  1894                           ; 1 bytes @ 0x0
  1895                           
  1896  0070                     ??_ConfigureOscillator:	
  1897                           ; 1 bytes @ 0x0
  1898                           
  1899  0070                     ?_InitApp:	
  1900                           ; 1 bytes @ 0x0
  1901                           
  1902  0070                     ??_InitApp:	
  1903                           ; 1 bytes @ 0x0
  1904                           
  1905  0070                     ?_displayColor:	
  1906                           ; 1 bytes @ 0x0
  1907                           
  1908  0070                     ??_displayColor:	
  1909                           ; 1 bytes @ 0x0
  1910                           
  1911  0070                     ?_addToColorSequence:	
  1912                           ; 1 bytes @ 0x0
  1913                           
  1914  0070                     ??_addToColorSequence:	
  1915                           ; 1 bytes @ 0x0
  1916                           
  1917  0070                     ?_displayColorSequence:	
  1918                           ; 1 bytes @ 0x0
  1919                           
  1920  0070                     ?_waitForUserColor:	
  1921                           ; 1 bytes @ 0x0
  1922                           
  1923  0070                     ??_waitForUserColor:	
  1924                           ; 1 bytes @ 0x0
  1925                           
  1926  0070                     ?_waitForUserSequence:	
  1927                           ; 1 bytes @ 0x0
  1928                           
  1929  0070                     displayColor@c:	
  1930                           ; 1 bytes @ 0x0
  1931                           
  1932                           
  1933                           ; 1 bytes @ 0x0
  1934  0070                     	ds	1
  1935  0071                     ??_displayColorSequence:
  1936  0071                     ??_waitForUserSequence:	
  1937                           ; 1 bytes @ 0x1
  1938                           
  1939                           
  1940                           ; 1 bytes @ 0x1
  1941  0071                     	ds	1
  1942  0072                     displayColorSequence@position:
  1943  0072                     waitForUserSequence@userColor:	
  1944                           ; 1 bytes @ 0x2
  1945                           
  1946                           
  1947                           ; 1 bytes @ 0x2
  1948  0072                     	ds	1
  1949  0073                     waitForUserSequence@position:
  1950                           
  1951                           ; 1 bytes @ 0x3
  1952  0073                     	ds	1
  1953  0074                     ?_main:
  1954  0074                     main@argc:	
  1955                           ; 2 bytes @ 0x4
  1956                           
  1957                           
  1958                           ; 2 bytes @ 0x4
  1959  0074                     	ds	2
  1960  0076                     main@argv:
  1961                           
  1962                           ; 2 bytes @ 0x6
  1963  0076                     	ds	2
  1964  0078                     ??_main:
  1965                           
  1966                           	psect	maintext
  1967  0762                     __pmaintext:	
  1968                           ; 1 bytes @ 0x8
  1969 ;;
  1970 ;;Main: autosize = 0, tempsize = 0, incstack = 0, save=0
  1971 ;;
  1972 ;; *************** function _main *****************
  1973 ;; Defined at:
  1974 ;;		line 104 in file "main.c"
  1975 ;; Parameters:    Size  Location     Type
  1976 ;;  argc            2    4[COMMON] int 
  1977 ;;  argv            2    6[COMMON] PTR PTR unsigned char 
  1978 ;; Auto vars:     Size  Location     Type
  1979 ;;		None
  1980 ;; Return value:  Size  Location     Type
  1981 ;;                  2    4[COMMON] int 
  1982 ;; Registers used:
  1983 ;;		wreg, fsr1l, fsr1h, status,2, status,0, pclath, cstack
  1984 ;; Tracked objects:
  1985 ;;		On entry : B1F/0
  1986 ;;		On exit  : 0/0
  1987 ;;		Unchanged: 0/0
  1988 ;; Data sizes:     COMMON   BANK0   BANK1   BANK2   BANK3   BANK4   BANK5   BANK6   BANK7   BANK8   BANK9  BANK10  BANK1
      +1  BANK12
  1989 ;;      Params:         4       0       0       0       0       0       0       0       0       0       0       0       
      +0       0
  1990 ;;      Locals:         0       0       0       0       0       0       0       0       0       0       0       0       
      +0       0
  1991 ;;      Temps:          0       0       0       0       0       0       0       0       0       0       0       0       
      +0       0
  1992 ;;      Totals:         4       0       0       0       0       0       0       0       0       0       0       0       
      +0       0
  1993 ;;Total ram usage:        4 bytes
  1994 ;; Hardware stack levels required when called:    2
  1995 ;; This function calls:
  1996 ;;		_ConfigureOscillator
  1997 ;;		_InitApp
  1998 ;;		_addToColorSequence
  1999 ;;		_displayColorSequence
  2000 ;;		_waitForUserSequence
  2001 ;; This function is called by:
  2002 ;;		Startup code after reset
  2003 ;; This function uses a non-reentrant model
  2004 ;;
  2005                           
  2006                           
  2007                           ;psect for function _main
  2008  0762                     _main:
  2009  0762                     l815:	
  2010                           ;incstack = 0
  2011                           ; Regs used in _main: [wreg+fsr1l+fsr1h+status,2+status,0+pclath+cstack]
  2012                           
  2013                           
  2014                           ;main.c: 105:     ConfigureOscillator();
  2015  0762  3187  2742  3187   	fcall	_ConfigureOscillator
  2016                           
  2017                           ;main.c: 106:     InitApp();
  2018  0765  3187  2750  3187   	fcall	_InitApp
  2019  0768                     l817:
  2020                           
  2021                           ;main.c: 108:         addToColorSequence();
  2022  0768  3187  2735  3187   	fcall	_addToColorSequence
  2023  076B                     l819:
  2024                           
  2025                           ;main.c: 109:         displayColorSequence();
  2026  076B  3187  2774  3187   	fcall	_displayColorSequence
  2027  076E                     l821:
  2028                           
  2029                           ;main.c: 110:         waitForUserSequence();
  2030  076E  3187  27A8  3187   	fcall	_waitForUserSequence
  2031  0771  2F68               	goto	l817
  2032  0772  3180  2802         	ljmp	start
  2033  0774                     __end_of_main:
  2034                           
  2035                           	psect	text1
  2036  07A8                     __ptext1:	
  2037 ;; *************** function _waitForUserSequence *****************
  2038 ;; Defined at:
  2039 ;;		line 84 in file "main.c"
  2040 ;; Parameters:    Size  Location     Type
  2041 ;;		None
  2042 ;; Auto vars:     Size  Location     Type
  2043 ;;  userColor       1    2[COMMON] unsigned char 
  2044 ;;  position        1    3[COMMON] unsigned char 
  2045 ;; Return value:  Size  Location     Type
  2046 ;;                  1    wreg      void 
  2047 ;; Registers used:
  2048 ;;		wreg, fsr1l, fsr1h, status,2, status,0, pclath, cstack
  2049 ;; Tracked objects:
  2050 ;;		On entry : 0/0
  2051 ;;		On exit  : 0/0
  2052 ;;		Unchanged: 0/0
  2053 ;; Data sizes:     COMMON   BANK0   BANK1   BANK2   BANK3   BANK4   BANK5   BANK6   BANK7   BANK8   BANK9  BANK10  BANK1
      +1  BANK12
  2054 ;;      Params:         0       0       0       0       0       0       0       0       0       0       0       0       
      +0       0
  2055 ;;      Locals:         2       0       0       0       0       0       0       0       0       0       0       0       
      +0       0
  2056 ;;      Temps:          1       0       0       0       0       0       0       0       0       0       0       0       
      +0       0
  2057 ;;      Totals:         3       0       0       0       0       0       0       0       0       0       0       0       
      +0       0
  2058 ;;Total ram usage:        3 bytes
  2059 ;; Hardware stack levels used:    1
  2060 ;; Hardware stack levels required when called:    1
  2061 ;; This function calls:
  2062 ;;		_waitForUserColor
  2063 ;; This function is called by:
  2064 ;;		_main
  2065 ;; This function uses a non-reentrant model
  2066 ;;
  2067                           
  2068                           
  2069                           ;psect for function _waitForUserSequence
  2070  07A8                     _waitForUserSequence:
  2071  07A8                     l791:	
  2072                           ;incstack = 0
  2073                           ; Regs used in _waitForUserSequence: [wreg+fsr1l+fsr1h+status,2+status,0+pclath+cstack]
  2074                           
  2075                           
  2076                           ;main.c: 85:     char position = 0;
  2077  07A8  01F3               	clrf	waitForUserSequence@position
  2078                           
  2079                           ;main.c: 86:     while (position<seqenceLength) {
  2080  07A9  2FC5               	goto	l805
  2081  07AA                     l793:
  2082                           
  2083                           ;main.c: 87:         char userColor = waitForUserColor();
  2084  07AA  3187  2789  3187   	fcall	_waitForUserColor
  2085  07AD  00F1               	movwf	??_waitForUserSequence
  2086  07AE  0871               	movf	??_waitForUserSequence,w
  2087  07AF  00F2               	movwf	waitForUserSequence@userColor
  2088  07B0                     l795:
  2089                           
  2090                           ;main.c: 88:         if (userColor==colorSequence[position]) {
  2091  07B0  0873               	movf	waitForUserSequence@position,w
  2092  07B1  3E20               	addlw	(low (_colorSequence| 0))& (0+255)
  2093  07B2  0086               	movwf	6
  2094  07B3  0187               	clrf	7
  2095  07B4  0801               	movf	1,w
  2096  07B5  0672               	xorwf	waitForUserSequence@userColor,w
  2097  07B6  1D03               	skipz
  2098  07B7  2FB9               	goto	u101
  2099  07B8  2FBA               	goto	u100
  2100  07B9                     u101:
  2101  07B9  2FBF               	goto	l799
  2102  07BA                     u100:
  2103  07BA                     l797:
  2104                           
  2105                           ;main.c: 89:             position++;
  2106  07BA  3001               	movlw	1
  2107  07BB  00F1               	movwf	??_waitForUserSequence
  2108  07BC  0871               	movf	??_waitForUserSequence,w
  2109  07BD  07F3               	addwf	waitForUserSequence@position,f
  2110                           
  2111                           ;main.c: 91:         } else {
  2112  07BE  2FC5               	goto	l805
  2113  07BF                     l799:
  2114                           
  2115                           ;main.c: 92:             PORTC=55;
  2116  07BF  3037               	movlw	55
  2117  07C0  0020               	movlb	0	; select bank0
  2118  07C1  008E               	movwf	14	;volatile
  2119  07C2                     l801:
  2120                           
  2121                           ;main.c: 94:             seqenceLength=0;
  2122  07C2  01F9               	clrf	_seqenceLength
  2123  07C3                     l803:
  2124                           
  2125                           ;main.c: 95:             PORTC=63;
  2126  07C3  303F               	movlw	63
  2127  07C4  008E               	movwf	14	;volatile
  2128  07C5                     l805:
  2129                           
  2130                           ;main.c: 86:     while (position<seqenceLength) {
  2131  07C5  0879               	movf	_seqenceLength,w
  2132  07C6  0273               	subwf	waitForUserSequence@position,w
  2133  07C7  1C03               	skipc
  2134  07C8  2FCA               	goto	u111
  2135  07C9  2FCB               	goto	u110
  2136  07CA                     u111:
  2137  07CA  2FAA               	goto	l793
  2138  07CB                     u110:
  2139  07CB                     l99:
  2140  07CB  0008               	return
  2141  07CC                     __end_of_waitForUserSequence:
  2142                           
  2143                           	psect	text2
  2144  0789                     __ptext2:	
  2145 ;; *************** function _waitForUserColor *****************
  2146 ;; Defined at:
  2147 ;;		line 62 in file "main.c"
  2148 ;; Parameters:    Size  Location     Type
  2149 ;;		None
  2150 ;; Auto vars:     Size  Location     Type
  2151 ;;		None
  2152 ;; Return value:  Size  Location     Type
  2153 ;;                  1    wreg      unsigned char 
  2154 ;; Registers used:
  2155 ;;		wreg, status,2, status,0
  2156 ;; Tracked objects:
  2157 ;;		On entry : 0/0
  2158 ;;		On exit  : 0/0
  2159 ;;		Unchanged: 0/0
  2160 ;; Data sizes:     COMMON   BANK0   BANK1   BANK2   BANK3   BANK4   BANK5   BANK6   BANK7   BANK8   BANK9  BANK10  BANK1
      +1  BANK12
  2161 ;;      Params:         0       0       0       0       0       0       0       0       0       0       0       0       
      +0       0
  2162 ;;      Locals:         0       0       0       0       0       0       0       0       0       0       0       0       
      +0       0
  2163 ;;      Temps:          1       0       0       0       0       0       0       0       0       0       0       0       
      +0       0
  2164 ;;      Totals:         1       0       0       0       0       0       0       0       0       0       0       0       
      +0       0
  2165 ;;Total ram usage:        1 bytes
  2166 ;; Hardware stack levels used:    1
  2167 ;; This function calls:
  2168 ;;		Nothing
  2169 ;; This function is called by:
  2170 ;;		_waitForUserSequence
  2171 ;; This function uses a non-reentrant model
  2172 ;;
  2173                           
  2174                           
  2175                           ;psect for function _waitForUserColor
  2176  0789                     _waitForUserColor:
  2177  0789                     l84:	
  2178                           ;incstack = 0
  2179                           ; Regs used in _waitForUserColor: [wreg+status,2+status,0]
  2180                           ;main.c: 63:     while (1) {
  2181                           
  2182  0789                     l733:
  2183                           
  2184                           ;main.c: 64:         r=(r+1)%4;
  2185  0789  0878               	movf	_r,w
  2186  078A  3E01               	addlw	1
  2187  078B  3903               	andlw	3
  2188  078C  00F0               	movwf	??_waitForUserColor
  2189  078D  0870               	movf	??_waitForUserColor,w
  2190  078E  00F8               	movwf	_r
  2191  078F                     l735:
  2192                           
  2193                           ;main.c: 65:         if (RB6==0b0) {
  2194  078F  0020               	movlb	0	; select bank0
  2195  0790  1B0D               	btfsc	13,6	;volatile
  2196  0791  2F93               	goto	u51
  2197  0792  2F94               	goto	u50
  2198  0793                     u51:
  2199  0793  2F96               	goto	l85
  2200  0794                     u50:
  2201  0794                     l737:
  2202                           
  2203                           ;main.c: 66:             return 0;
  2204  0794  3000               	movlw	0
  2205  0795  2FA7               	goto	l86
  2206  0796                     l85:	
  2207                           ;main.c: 67:         }
  2208                           
  2209                           
  2210                           ;main.c: 68:         if (RB7==0b0) {
  2211  0796  1B8D               	btfsc	13,7	;volatile
  2212  0797  2F99               	goto	u61
  2213  0798  2F9A               	goto	u60
  2214  0799                     u61:
  2215  0799  2F9C               	goto	l87
  2216  079A                     u60:
  2217  079A                     l741:
  2218                           
  2219                           ;main.c: 69:             return 1;
  2220  079A  3001               	movlw	1
  2221  079B  2FA7               	goto	l86
  2222  079C                     l87:	
  2223                           ;main.c: 70:         }
  2224                           
  2225                           
  2226                           ;main.c: 71:         if (RB5==0b0) {
  2227  079C  1A8D               	btfsc	13,5	;volatile
  2228  079D  2F9F               	goto	u71
  2229  079E  2FA0               	goto	u70
  2230  079F                     u71:
  2231  079F  2FA2               	goto	l88
  2232  07A0                     u70:
  2233  07A0                     l745:
  2234                           
  2235                           ;main.c: 72:             return 2;
  2236  07A0  3002               	movlw	2
  2237  07A1  2FA7               	goto	l86
  2238  07A2                     l88:	
  2239                           ;main.c: 73:         }
  2240                           
  2241                           
  2242                           ;main.c: 74:         if (RB4==0b0) {
  2243  07A2  1A0D               	btfsc	13,4	;volatile
  2244  07A3  2FA5               	goto	u81
  2245  07A4  2FA6               	goto	u80
  2246  07A5                     u81:
  2247  07A5  2F89               	goto	l84
  2248  07A6                     u80:
  2249  07A6                     l749:
  2250                           
  2251                           ;main.c: 75:             return 3;
  2252  07A6  3003               	movlw	3
  2253  07A7                     l86:
  2254  07A7  0008               	return
  2255  07A8                     __end_of_waitForUserColor:
  2256                           
  2257                           	psect	text3
  2258  0774                     __ptext3:	
  2259 ;; *************** function _displayColorSequence *****************
  2260 ;; Defined at:
  2261 ;;		line 50 in file "main.c"
  2262 ;; Parameters:    Size  Location     Type
  2263 ;;		None
  2264 ;; Auto vars:     Size  Location     Type
  2265 ;;  position        1    2[COMMON] unsigned char 
  2266 ;; Return value:  Size  Location     Type
  2267 ;;                  1    wreg      void 
  2268 ;; Registers used:
  2269 ;;		wreg, fsr1l, fsr1h, status,2, status,0, pclath, cstack
  2270 ;; Tracked objects:
  2271 ;;		On entry : 0/0
  2272 ;;		On exit  : 0/0
  2273 ;;		Unchanged: 0/0
  2274 ;; Data sizes:     COMMON   BANK0   BANK1   BANK2   BANK3   BANK4   BANK5   BANK6   BANK7   BANK8   BANK9  BANK10  BANK1
      +1  BANK12
  2275 ;;      Params:         0       0       0       0       0       0       0       0       0       0       0       0       
      +0       0
  2276 ;;      Locals:         1       0       0       0       0       0       0       0       0       0       0       0       
      +0       0
  2277 ;;      Temps:          1       0       0       0       0       0       0       0       0       0       0       0       
      +0       0
  2278 ;;      Totals:         2       0       0       0       0       0       0       0       0       0       0       0       
      +0       0
  2279 ;;Total ram usage:        2 bytes
  2280 ;; Hardware stack levels used:    1
  2281 ;; Hardware stack levels required when called:    1
  2282 ;; This function calls:
  2283 ;;		_displayColor
  2284 ;; This function is called by:
  2285 ;;		_main
  2286 ;; This function uses a non-reentrant model
  2287 ;;
  2288                           
  2289                           
  2290                           ;psect for function _displayColorSequence
  2291  0774                     _displayColorSequence:
  2292  0774                     l783:	
  2293                           ;incstack = 0
  2294                           ; Regs used in _displayColorSequence: [wreg+fsr1l+fsr1h+status,2+status,0+pclath+cstack]
  2295                           
  2296                           
  2297                           ;main.c: 51:     char position = 0;
  2298  0774  01F2               	clrf	displayColorSequence@position
  2299                           
  2300                           ;main.c: 52:     while (position<seqenceLength) {
  2301  0775  2F82               	goto	l789
  2302  0776                     l785:
  2303                           
  2304                           ;main.c: 53:         displayColor(colorSequence[position++]);
  2305  0776  0872               	movf	displayColorSequence@position,w
  2306  0777  3E20               	addlw	(low (_colorSequence| 0))& (0+255)
  2307  0778  0086               	movwf	6
  2308  0779  0187               	clrf	7
  2309  077A  0801               	movf	1,w
  2310  077B  3187  27CC  3187   	fcall	_displayColor
  2311  077E                     l787:
  2312  077E  3001               	movlw	1
  2313  077F  00F1               	movwf	??_displayColorSequence
  2314  0780  0871               	movf	??_displayColorSequence,w
  2315  0781  07F2               	addwf	displayColorSequence@position,f
  2316  0782                     l789:
  2317                           
  2318                           ;main.c: 52:     while (position<seqenceLength) {
  2319  0782  0879               	movf	_seqenceLength,w
  2320  0783  0272               	subwf	displayColorSequence@position,w
  2321  0784  1C03               	skipc
  2322  0785  2F87               	goto	u91
  2323  0786  2F88               	goto	u90
  2324  0787                     u91:
  2325  0787  2F76               	goto	l785
  2326  0788                     u90:
  2327  0788                     l81:
  2328  0788  0008               	return
  2329  0789                     __end_of_displayColorSequence:
  2330                           
  2331                           	psect	text4
  2332  07CC                     __ptext4:	
  2333 ;; *************** function _displayColor *****************
  2334 ;; Defined at:
  2335 ;;		line 22 in file "main.c"
  2336 ;; Parameters:    Size  Location     Type
  2337 ;;  c               1    wreg     unsigned char 
  2338 ;; Auto vars:     Size  Location     Type
  2339 ;;  c               1    0[COMMON] unsigned char 
  2340 ;; Return value:  Size  Location     Type
  2341 ;;                  1    wreg      void 
  2342 ;; Registers used:
  2343 ;;		wreg, status,2, status,0
  2344 ;; Tracked objects:
  2345 ;;		On entry : 0/0
  2346 ;;		On exit  : 0/0
  2347 ;;		Unchanged: 0/0
  2348 ;; Data sizes:     COMMON   BANK0   BANK1   BANK2   BANK3   BANK4   BANK5   BANK6   BANK7   BANK8   BANK9  BANK10  BANK1
      +1  BANK12
  2349 ;;      Params:         0       0       0       0       0       0       0       0       0       0       0       0       
      +0       0
  2350 ;;      Locals:         1       0       0       0       0       0       0       0       0       0       0       0       
      +0       0
  2351 ;;      Temps:          0       0       0       0       0       0       0       0       0       0       0       0       
      +0       0
  2352 ;;      Totals:         1       0       0       0       0       0       0       0       0       0       0       0       
      +0       0
  2353 ;;Total ram usage:        1 bytes
  2354 ;; Hardware stack levels used:    1
  2355 ;; This function calls:
  2356 ;;		Nothing
  2357 ;; This function is called by:
  2358 ;;		_displayColorSequence
  2359 ;; This function uses a non-reentrant model
  2360 ;;
  2361                           
  2362                           
  2363                           ;psect for function _displayColor
  2364  07CC                     _displayColor:
  2365                           
  2366                           ;incstack = 0
  2367                           ; Regs used in _displayColor: [wreg+status,2+status,0]
  2368                           ;displayColor@c stored from wreg
  2369  07CC  00F0               	movwf	displayColor@c
  2370  07CD                     l717:
  2371                           
  2372                           ;main.c: 23:     if (c==0) {
  2373  07CD  0870               	movf	displayColor@c,w
  2374  07CE  1D03               	btfss	3,2
  2375  07CF  2FD1               	goto	u11
  2376  07D0  2FD2               	goto	u10
  2377  07D1                     u11:
  2378  07D1  2FD5               	goto	l721
  2379  07D2                     u10:
  2380  07D2                     l719:
  2381                           
  2382                           ;main.c: 24:         PORTC=31;
  2383  07D2  301F               	movlw	31
  2384  07D3  0020               	movlb	0	; select bank0
  2385  07D4  008E               	movwf	14	;volatile
  2386  07D5                     l721:
  2387                           
  2388                           ;main.c: 26:     if (c==1) {
  2389  07D5  0370               	decf	displayColor@c,w
  2390  07D6  1D03               	btfss	3,2
  2391  07D7  2FD9               	goto	u21
  2392  07D8  2FDA               	goto	u20
  2393  07D9                     u21:
  2394  07D9  2FDD               	goto	l725
  2395  07DA                     u20:
  2396  07DA                     l723:
  2397                           
  2398                           ;main.c: 27:         PORTC=47;
  2399  07DA  302F               	movlw	47
  2400  07DB  0020               	movlb	0	; select bank0
  2401  07DC  008E               	movwf	14	;volatile
  2402  07DD                     l725:
  2403                           
  2404                           ;main.c: 29:     if (c==2) {
  2405  07DD  3002               	movlw	2
  2406  07DE  0670               	xorwf	displayColor@c,w
  2407  07DF  1D03               	btfss	3,2
  2408  07E0  2FE2               	goto	u31
  2409  07E1  2FE3               	goto	u30
  2410  07E2                     u31:
  2411  07E2  2FE6               	goto	l729
  2412  07E3                     u30:
  2413  07E3                     l727:
  2414                           
  2415                           ;main.c: 30:         PORTC=59;
  2416  07E3  303B               	movlw	59
  2417  07E4  0020               	movlb	0	; select bank0
  2418  07E5  008E               	movwf	14	;volatile
  2419  07E6                     l729:
  2420                           
  2421                           ;main.c: 32:     if (c==3) {
  2422  07E6  3003               	movlw	3
  2423  07E7  0670               	xorwf	displayColor@c,w
  2424  07E8  1D03               	btfss	3,2
  2425  07E9  2FEB               	goto	u41
  2426  07EA  2FEC               	goto	u40
  2427  07EB                     u41:
  2428  07EB  2FEF               	goto	l71
  2429  07EC                     u40:
  2430  07EC                     l731:
  2431                           
  2432                           ;main.c: 33:         PORTC=61;
  2433  07EC  303D               	movlw	61
  2434  07ED  0020               	movlb	0	; select bank0
  2435  07EE  008E               	movwf	14	;volatile
  2436  07EF                     l71:	
  2437                           ;main.c: 34:     }
  2438                           
  2439                           
  2440                           ;main.c: 36:     PORTC=63;
  2441  07EF  303F               	movlw	63
  2442  07F0  0020               	movlb	0	; select bank0
  2443  07F1  008E               	movwf	14	;volatile
  2444  07F2                     l72:
  2445  07F2  0008               	return
  2446  07F3                     __end_of_displayColor:
  2447                           
  2448                           	psect	text5
  2449  0735                     __ptext5:	
  2450 ;; *************** function _addToColorSequence *****************
  2451 ;; Defined at:
  2452 ;;		line 42 in file "main.c"
  2453 ;; Parameters:    Size  Location     Type
  2454 ;;		None
  2455 ;; Auto vars:     Size  Location     Type
  2456 ;;		None
  2457 ;; Return value:  Size  Location     Type
  2458 ;;                  1    wreg      void 
  2459 ;; Registers used:
  2460 ;;		wreg, fsr1l, fsr1h, status,2, status,0
  2461 ;; Tracked objects:
  2462 ;;		On entry : 0/0
  2463 ;;		On exit  : 0/0
  2464 ;;		Unchanged: 0/0
  2465 ;; Data sizes:     COMMON   BANK0   BANK1   BANK2   BANK3   BANK4   BANK5   BANK6   BANK7   BANK8   BANK9  BANK10  BANK1
      +1  BANK12
  2466 ;;      Params:         0       0       0       0       0       0       0       0       0       0       0       0       
      +0       0
  2467 ;;      Locals:         0       0       0       0       0       0       0       0       0       0       0       0       
      +0       0
  2468 ;;      Temps:          1       0       0       0       0       0       0       0       0       0       0       0       
      +0       0
  2469 ;;      Totals:         1       0       0       0       0       0       0       0       0       0       0       0       
      +0       0
  2470 ;;Total ram usage:        1 bytes
  2471 ;; Hardware stack levels used:    1
  2472 ;; This function calls:
  2473 ;;		Nothing
  2474 ;; This function is called by:
  2475 ;;		_main
  2476 ;; This function uses a non-reentrant model
  2477 ;;
  2478                           
  2479                           
  2480                           ;psect for function _addToColorSequence
  2481  0735                     _addToColorSequence:
  2482  0735                     l779:	
  2483                           ;incstack = 0
  2484                           ; Regs used in _addToColorSequence: [wreg+fsr1l+fsr1h+status,2+status,0]
  2485                           
  2486                           
  2487                           ;main.c: 43:     colorSequence[seqenceLength]=r;
  2488  0735  0878               	movf	_r,w
  2489  0736  00F0               	movwf	??_addToColorSequence
  2490  0737  0879               	movf	_seqenceLength,w
  2491  0738  3E20               	addlw	(low (_colorSequence| 0))& (0+255)
  2492  0739  0086               	movwf	6
  2493  073A  0187               	clrf	7
  2494  073B  0870               	movf	??_addToColorSequence,w
  2495  073C  0081               	movwf	1
  2496  073D                     l781:
  2497                           
  2498                           ;main.c: 44:     seqenceLength++;
  2499  073D  3001               	movlw	1
  2500  073E  00F0               	movwf	??_addToColorSequence
  2501  073F  0870               	movf	??_addToColorSequence,w
  2502  0740  07F9               	addwf	_seqenceLength,f
  2503  0741                     l75:
  2504  0741  0008               	return
  2505  0742                     __end_of_addToColorSequence:
  2506                           
  2507                           	psect	text6
  2508  0750                     __ptext6:	
  2509 ;; *************** function _InitApp *****************
  2510 ;; Defined at:
  2511 ;;		line 25 in file "user.c"
  2512 ;; Parameters:    Size  Location     Type
  2513 ;;		None
  2514 ;; Auto vars:     Size  Location     Type
  2515 ;;		None
  2516 ;; Return value:  Size  Location     Type
  2517 ;;                  1    wreg      void 
  2518 ;; Registers used:
  2519 ;;		wreg, status,2, status,0, pclath, cstack
  2520 ;; Tracked objects:
  2521 ;;		On entry : 0/0
  2522 ;;		On exit  : 0/0
  2523 ;;		Unchanged: 0/0
  2524 ;; Data sizes:     COMMON   BANK0   BANK1   BANK2   BANK3   BANK4   BANK5   BANK6   BANK7   BANK8   BANK9  BANK10  BANK1
      +1  BANK12
  2525 ;;      Params:         0       0       0       0       0       0       0       0       0       0       0       0       
      +0       0
  2526 ;;      Locals:         0       0       0       0       0       0       0       0       0       0       0       0       
      +0       0
  2527 ;;      Temps:          0       0       0       0       0       0       0       0       0       0       0       0       
      +0       0
  2528 ;;      Totals:         0       0       0       0       0       0       0       0       0       0       0       0       
      +0       0
  2529 ;;Total ram usage:        0 bytes
  2530 ;; Hardware stack levels used:    1
  2531 ;; Hardware stack levels required when called:    1
  2532 ;; This function calls:
  2533 ;;		_powerOnSelfTest
  2534 ;; This function is called by:
  2535 ;;		_main
  2536 ;; This function uses a non-reentrant model
  2537 ;;
  2538                           
  2539                           
  2540                           ;psect for function _InitApp
  2541  0750                     _InitApp:
  2542  0750                     l765:	
  2543                           ;incstack = 0
  2544                           ; Regs used in _InitApp: [wreg+status,2+status,0+pclath+cstack]
  2545                           
  2546                           
  2547                           ;user.c: 26:     WPUA=255;
  2548  0750  30FF               	movlw	255
  2549  0751  0024               	movlb	4	; select bank4
  2550  0752  008C               	movwf	12	;volatile
  2551                           
  2552                           ;user.c: 27:     WPUB=255;
  2553  0753  30FF               	movlw	255
  2554  0754  008D               	movwf	13	;volatile
  2555                           
  2556                           ;user.c: 28:     WPUC=255;
  2557  0755  30FF               	movlw	255
  2558  0756  008E               	movwf	14	;volatile
  2559  0757                     l767:
  2560                           
  2561                           ;user.c: 29:     ADIE=0;
  2562  0757  0021               	movlb	1	; select bank1
  2563  0758  1311               	bcf	17,6	;volatile
  2564  0759                     l769:
  2565                           
  2566                           ;user.c: 30:     ADON=0;
  2567  0759  101D               	bcf	29,0	;volatile
  2568  075A                     l771:
  2569                           
  2570                           ;user.c: 31:     ANSELA=0;
  2571  075A  0023               	movlb	3	; select bank3
  2572  075B  018C               	clrf	12	;volatile
  2573  075C                     l773:
  2574                           
  2575                           ;user.c: 32:     ANSELB=0;
  2576  075C  018D               	clrf	13	;volatile
  2577  075D                     l775:
  2578                           
  2579                           ;user.c: 33:     ANSELC=0;
  2580  075D  018E               	clrf	14	;volatile
  2581  075E                     l777:
  2582                           
  2583                           ;user.c: 34:     powerOnSelfTest();
  2584  075E  3187  272E  3187   	fcall	_powerOnSelfTest
  2585  0761                     l42:
  2586  0761  0008               	return
  2587  0762                     __end_of_InitApp:
  2588                           
  2589                           	psect	text7
  2590  072E                     __ptext7:	
  2591 ;; *************** function _powerOnSelfTest *****************
  2592 ;; Defined at:
  2593 ;;		line 37 in file "user.c"
  2594 ;; Parameters:    Size  Location     Type
  2595 ;;		None
  2596 ;; Auto vars:     Size  Location     Type
  2597 ;;		None
  2598 ;; Return value:  Size  Location     Type
  2599 ;;                  1    wreg      void 
  2600 ;; Registers used:
  2601 ;;		None
  2602 ;; Tracked objects:
  2603 ;;		On entry : 0/0
  2604 ;;		On exit  : 0/0
  2605 ;;		Unchanged: 0/0
  2606 ;; Data sizes:     COMMON   BANK0   BANK1   BANK2   BANK3   BANK4   BANK5   BANK6   BANK7   BANK8   BANK9  BANK10  BANK1
      +1  BANK12
  2607 ;;      Params:         0       0       0       0       0       0       0       0       0       0       0       0       
      +0       0
  2608 ;;      Locals:         0       0       0       0       0       0       0       0       0       0       0       0       
      +0       0
  2609 ;;      Temps:          0       0       0       0       0       0       0       0       0       0       0       0       
      +0       0
  2610 ;;      Totals:         0       0       0       0       0       0       0       0       0       0       0       0       
      +0       0
  2611 ;;Total ram usage:        0 bytes
  2612 ;; Hardware stack levels used:    1
  2613 ;; This function calls:
  2614 ;;		Nothing
  2615 ;; This function is called by:
  2616 ;;		_InitApp
  2617 ;; This function uses a non-reentrant model
  2618 ;;
  2619                           
  2620                           
  2621                           ;psect for function _powerOnSelfTest
  2622  072E                     _powerOnSelfTest:
  2623  072E                     l45:	
  2624                           ;incstack = 0
  2625                           ; Regs used in _powerOnSelfTest: []
  2626                           
  2627  072E  0008               	return
  2628  072F                     __end_of_powerOnSelfTest:
  2629                           
  2630                           	psect	text8
  2631  0742                     __ptext8:	
  2632 ;; *************** function _ConfigureOscillator *****************
  2633 ;; Defined at:
  2634 ;;		line 16 in file "system.c"
  2635 ;; Parameters:    Size  Location     Type
  2636 ;;		None
  2637 ;; Auto vars:     Size  Location     Type
  2638 ;;		None
  2639 ;; Return value:  Size  Location     Type
  2640 ;;                  1    wreg      void 
  2641 ;; Registers used:
  2642 ;;		wreg, status,2
  2643 ;; Tracked objects:
  2644 ;;		On entry : 0/0
  2645 ;;		On exit  : 0/0
  2646 ;;		Unchanged: 0/0
  2647 ;; Data sizes:     COMMON   BANK0   BANK1   BANK2   BANK3   BANK4   BANK5   BANK6   BANK7   BANK8   BANK9  BANK10  BANK1
      +1  BANK12
  2648 ;;      Params:         0       0       0       0       0       0       0       0       0       0       0       0       
      +0       0
  2649 ;;      Locals:         0       0       0       0       0       0       0       0       0       0       0       0       
      +0       0
  2650 ;;      Temps:          0       0       0       0       0       0       0       0       0       0       0       0       
      +0       0
  2651 ;;      Totals:         0       0       0       0       0       0       0       0       0       0       0       0       
      +0       0
  2652 ;;Total ram usage:        0 bytes
  2653 ;; Hardware stack levels used:    1
  2654 ;; This function calls:
  2655 ;;		Nothing
  2656 ;; This function is called by:
  2657 ;;		_main
  2658 ;; This function uses a non-reentrant model
  2659 ;;
  2660                           
  2661                           
  2662                           ;psect for function _ConfigureOscillator
  2663  0742                     _ConfigureOscillator:
  2664  0742                     l753:	
  2665                           ;incstack = 0
  2666                           ; Regs used in _ConfigureOscillator: [wreg+status,2]
  2667                           
  2668                           
  2669                           ;system.c: 18:     INTCONbits.GIE = 0;
  2670  0742  138B               	bcf	11,7	;volatile
  2671                           
  2672                           ;system.c: 19:     INTCONbits.PEIE = 0;
  2673  0743  130B               	bcf	11,6	;volatile
  2674  0744                     l755:
  2675                           
  2676                           ;system.c: 20:     TRISC=0;
  2677  0744  0021               	movlb	1	; select bank1
  2678  0745  018E               	clrf	14	;volatile
  2679  0746                     l757:
  2680                           
  2681                           ;system.c: 21:     TRISA=255;
  2682  0746  30FF               	movlw	255
  2683  0747  008C               	movwf	12	;volatile
  2684  0748                     l759:
  2685                           
  2686                           ;system.c: 22:     TRISB=255;
  2687  0748  30FF               	movlw	255
  2688  0749  008D               	movwf	13	;volatile
  2689  074A                     l761:
  2690                           
  2691                           ;system.c: 23:     WPUA=255;
  2692  074A  30FF               	movlw	255
  2693  074B  0024               	movlb	4	; select bank4
  2694  074C  008C               	movwf	12	;volatile
  2695  074D                     l763:
  2696                           
  2697                           ;system.c: 24:     WPUB=255;
  2698  074D  30FF               	movlw	255
  2699  074E  008D               	movwf	13	;volatile
  2700  074F                     l15:
  2701  074F  0008               	return
  2702  0750                     __end_of_ConfigureOscillator:
  2703  007E                     btemp	set	126	;btemp
  2704  007E                     wtemp0	set	126
  2705                           
  2706                           	psect	config
  2707                           
  2708                           ;Config register CONFIG1 @ 0x8007
  2709                           ;	FEXTOSC External Oscillator mode Selection bits
  2710                           ;	FEXTOSC = LP, LP (crystal oscillator) optimized for 32.768 kHz
  2711                           ;	Power-up default value for COSC bits
  2712                           ;	RSTOSC = LFINT, LFINTOSC (31kHz)
  2713                           ;	Clock Out Enable bit
  2714                           ;	CLKOUTEN = OFF, CLKOUT function is disabled; I/O or oscillator function on OSC2
  2715                           ;	Clock Switch Enable bit
  2716                           ;	CSWEN = ON, Writing to NOSC and NDIV is allowed
  2717                           ;	Fail-Safe Clock Monitor Enable
  2718                           ;	FCMEN = ON, Fail-Safe Clock Monitor is enabled
  2719  8007                     	org	32775
  2720  8007  3FC8               	dw	16328
  2721                           
  2722                           ;Config register CONFIG2 @ 0x8008
  2723                           ;	Master Clear Enable bit
  2724                           ;	MCLRE = ON, MCLR/VPP pin function is MCLR; Weak pull-up enabled
  2725                           ;	Power-up Timer Enable bit
  2726                           ;	PWRTE = OFF, PWRT disabled
  2727                           ;	Watchdog Timer Enable bits
  2728                           ;	WDTE = OFF, WDT disabled; SWDTEN is ignored
  2729                           ;	Low-power BOR enable bit
  2730                           ;	LPBOREN = OFF, ULPBOR disabled
  2731                           ;	Brown-out Reset Enable bits
  2732                           ;	BOREN = OFF, Brown-out Reset disabled
  2733                           ;	Brown-out Reset Voltage selection bit
  2734                           ;	BORV = LOW, Brown-out voltage (Vbor) set to 2.45V
  2735                           ;	PPSLOCK bit One-Way Set Enable bit
  2736                           ;	PPS1WAY = OFF, The PPSLOCK bit can be set and cleared repeatedly (subject to the unloc
      +                          k sequence)
  2737                           ;	Stack Overflow/Underflow Reset Enable bit
  2738                           ;	STVREN = ON, Stack Overflow or Underflow will cause a Reset
  2739                           ;	Debugger enable bit
  2740                           ;	DEBUG = OFF, Background debugger disabled
  2741  8008                     	org	32776
  2742  8008  3733               	dw	14131
  2743                           
  2744                           ;Config register CONFIG3 @ 0x8009
  2745                           ;	User NVM self-write protection bits
  2746                           ;	WRT = OFF, Write protection off
  2747                           ;	Low Voltage Programming Enable bit
  2748                           ;	LVP = OFF, High Voltage on MCLR/VPP must be used for programming.
  2749  8009                     	org	32777
  2750  8009  1FFF               	dw	8191
  2751                           
  2752                           ;Config register CONFIG4 @ 0x800A
  2753                           ;	User NVM Program Memory Code Protection bit
  2754                           ;	CP = OFF, User NVM code protection disabled
  2755                           ;	Data NVM Memory Code Protection bit
  2756                           ;	CPD = OFF, Data NVM code protection disabled
  2757  800A                     	org	32778
  2758  800A  3FFF               	dw	16383

Data Sizes:
    Strings     0
    Constant    0
    Data        0
    BSS         62
    Persistent  32
    Stack       0

Auto Spaces:
    Space          Size  Autos    Used
    COMMON           14      8      10
    BANK0            80      0      60
    BANK1            80      0       0
    BANK2            80      0       0
    BANK3            80      0       0
    BANK4            80      0       0
    BANK5            80      0       0
    BANK6            80      0       0
    BANK7            80      0       0
    BANK8            80      0       0
    BANK9            80      0       0
    BANK10           80      0       0
    BANK11           80      0       0
    BANK12           48      0       0

Pointer List with Targets:

    None.

Critical Paths under _main in COMMON

    _main->_waitForUserSequence
    _waitForUserSequence->_waitForUserColor
    _displayColorSequence->_displayColor

Critical Paths under _main in BANK0

    None.

Critical Paths under _main in BANK1

    None.

Critical Paths under _main in BANK2

    None.

Critical Paths under _main in BANK3

    None.

Critical Paths under _main in BANK4

    None.

Critical Paths under _main in BANK5

    None.

Critical Paths under _main in BANK6

    None.

Critical Paths under _main in BANK7

    None.

Critical Paths under _main in BANK8

    None.

Critical Paths under _main in BANK9

    None.

Critical Paths under _main in BANK10

    None.

Critical Paths under _main in BANK11

    None.

Critical Paths under _main in BANK12

    None.

Call Graph Tables:

 ---------------------------------------------------------------------------------
 (Depth) Function   	        Calls       Base Space   Used Autos Params    Refs
 ---------------------------------------------------------------------------------
 (0) _main                                                 4     0      4     135
                                              4 COMMON     4     0      4
                _ConfigureOscillator
                            _InitApp
                 _addToColorSequence
               _displayColorSequence
                _waitForUserSequence
 ---------------------------------------------------------------------------------
 (1) _waitForUserSequence                                  3     3      0      45
                                              1 COMMON     3     3      0
                   _waitForUserColor
 ---------------------------------------------------------------------------------
 (2) _waitForUserColor                                     1     1      0       0
                                              0 COMMON     1     1      0
 ---------------------------------------------------------------------------------
 (1) _displayColorSequence                                 2     2      0      90
                                              1 COMMON     2     2      0
                       _displayColor
 ---------------------------------------------------------------------------------
 (2) _displayColor                                         1     1      0      60
                                              0 COMMON     1     1      0
 ---------------------------------------------------------------------------------
 (1) _addToColorSequence                                   1     1      0       0
                                              0 COMMON     1     1      0
 ---------------------------------------------------------------------------------
 (1) _InitApp                                              0     0      0       0
                    _powerOnSelfTest
 ---------------------------------------------------------------------------------
 (2) _powerOnSelfTest                                      0     0      0       0
 ---------------------------------------------------------------------------------
 (1) _ConfigureOscillator                                  0     0      0       0
 ---------------------------------------------------------------------------------
 Estimated maximum stack depth 2
 ---------------------------------------------------------------------------------

 Call Graph Graphs:

 _main (ROOT)
   _ConfigureOscillator
   _InitApp
     _powerOnSelfTest
   _addToColorSequence
   _displayColorSequence
     _displayColor
   _waitForUserSequence
     _waitForUserColor

 Address spaces:
Name               Size   Autos  Total    Cost      Usage
BIGRAM             3F0      0       0       0        0.0%
EEDATA             100      0       0       0        0.0%
NULL                 0      0       0       0        0.0%
CODE                 0      0       0       0        0.0%
BITCOMMON            E      0       0       1        0.0%
BITSFR0              0      0       0       1        0.0%
SFR0                 0      0       0       1        0.0%
COMMON               E      8       A       2       71.4%
BITSFR1              0      0       0       2        0.0%
SFR1                 0      0       0       2        0.0%
BITSFR2              0      0       0       3        0.0%
SFR2                 0      0       0       3        0.0%
STACK                0      0       0       3        0.0%
BITBANK0            50      0       0       4        0.0%
BITSFR3              0      0       0       4        0.0%
SFR3                 0      0       0       4        0.0%
BANK0               50      0      3C       5       75.0%
BITSFR4              0      0       0       5        0.0%
SFR4                 0      0       0       5        0.0%
BITBANK1            50      0       0       6        0.0%
BITSFR5              0      0       0       6        0.0%
SFR5                 0      0       0       6        0.0%
BANK1               50      0       0       7        0.0%
BITSFR6              0      0       0       7        0.0%
SFR6                 0      0       0       7        0.0%
BITBANK2            50      0       0       8        0.0%
BITSFR7              0      0       0       8        0.0%
SFR7                 0      0       0       8        0.0%
BANK2               50      0       0       9        0.0%
BITSFR8              0      0       0       9        0.0%
SFR8                 0      0       0       9        0.0%
BITBANK3            50      0       0      10        0.0%
BITSFR9              0      0       0      10        0.0%
SFR9                 0      0       0      10        0.0%
BANK3               50      0       0      11        0.0%
BITSFR10             0      0       0      11        0.0%
SFR10                0      0       0      11        0.0%
BITBANK4            50      0       0      12        0.0%
BITSFR11             0      0       0      12        0.0%
SFR11                0      0       0      12        0.0%
BANK4               50      0       0      13        0.0%
BITSFR12             0      0       0      13        0.0%
SFR12                0      0       0      13        0.0%
BITBANK5            50      0       0      14        0.0%
BITSFR13             0      0       0      14        0.0%
SFR13                0      0       0      14        0.0%
BANK5               50      0       0      15        0.0%
BITSFR14             0      0       0      15        0.0%
SFR14                0      0       0      15        0.0%
BITBANK6            50      0       0      16        0.0%
BITSFR15             0      0       0      16        0.0%
SFR15                0      0       0      16        0.0%
BANK6               50      0       0      17        0.0%
BITSFR16             0      0       0      17        0.0%
SFR16                0      0       0      17        0.0%
BITBANK7            50      0       0      18        0.0%
BITSFR17             0      0       0      18        0.0%
SFR17                0      0       0      18        0.0%
BANK7               50      0       0      19        0.0%
BITSFR18             0      0       0      19        0.0%
SFR18                0      0       0      19        0.0%
BITSFR19             0      0       0      20        0.0%
SFR19                0      0       0      20        0.0%
ABS                  0      0      46      20        0.0%
BITBANK8            50      0       0      21        0.0%
BITSFR20             0      0       0      21        0.0%
SFR20                0      0       0      21        0.0%
BANK8               50      0       0      22        0.0%
BITSFR21             0      0       0      22        0.0%
SFR21                0      0       0      22        0.0%
BITBANK9            50      0       0      23        0.0%
BITSFR22             0      0       0      23        0.0%
SFR22                0      0       0      23        0.0%
BANK9               50      0       0      24        0.0%
BITSFR23             0      0       0      24        0.0%
SFR23                0      0       0      24        0.0%
BITBANK10           50      0       0      25        0.0%
BITSFR24             0      0       0      25        0.0%
SFR24                0      0       0      25        0.0%
BANK10              50      0       0      26        0.0%
BITSFR25             0      0       0      26        0.0%
SFR25                0      0       0      26        0.0%
BITBANK11           50      0       0      27        0.0%
BITSFR26             0      0       0      27        0.0%
SFR26                0      0       0      27        0.0%
BANK11              50      0       0      28        0.0%
BITSFR27             0      0       0      28        0.0%
SFR27                0      0       0      28        0.0%
BITBANK12           30      0       0      29        0.0%
BITSFR28             0      0       0      29        0.0%
SFR28                0      0       0      29        0.0%
BANK12              30      0       0      30        0.0%
BITSFR29             0      0       0      30        0.0%
SFR29                0      0       0      30        0.0%
BITSFR30             0      0       0      31        0.0%
SFR30                0      0       0      31        0.0%
DATA                 0      0      46      31        0.0%
BITSFR31             0      0       0      32        0.0%
SFR31                0      0       0      32        0.0%


Microchip Technology PIC Macro Assembler V2.20 build 20200408173844 
Symbol Table                                                                                   Sat Oct 10 13:53:33 2020

                            _r 0078               ?_powerOnSelfTest 0070                             l15 074F  
                           l42 0761                             l45 072E                             l71 07EF  
                           l72 07F2                             l81 0788                             l75 0741  
                           l84 0789                             l85 0796                             l86 07A7  
                           l87 079C                             l88 07A2                             l99 07CB  
                           u10 07D2                             u11 07D1                             u20 07DA  
                           u21 07D9                             u30 07E3                             u31 07E2  
                           u40 07EC                             u41 07EB                             u50 0794  
                           u51 0793                             u60 079A                             u61 0799  
                           u70 07A0                             u71 079F                             u80 07A6  
                           u81 07A5                             u90 0788                             u91 0787  
                ?_displayColor 0070                            l721 07D5                            l801 07C2  
                          l731 07EC                            l723 07DA                            l803 07C3  
                          l725 07DD                            l717 07CD                            l741 079A  
                          l733 0789                            l805 07C5                            l821 076E  
                          l727 07E3                            l719 07D2                            l735 078F  
                          l815 0762                            l761 074A                            l753 0742  
                          l729 07E6                            l745 07A0                            l737 0794  
                          l817 0768                            l763 074D                            l755 0744  
                          l771 075A                            l819 076B                            l757 0746  
                          l773 075C                            l765 0750                            l781 073D  
                          l749 07A6                            l759 0748                            l775 075D  
                          l767 0757                            l783 0774                            l791 07A8  
                          l777 075E                            l769 0759                            l785 0776  
                          l793 07AA                            l779 0735                            l787 077E  
                          l795 07B0                            l789 0782                            l797 07BA  
                          l799 07BF                            _RB4 006C                            _RB5 006D  
                          _RB6 006E                            _RB7 006F                            u100 07BA  
                          u101 07B9                            u110 07CB                            u111 07CA  
                          wreg 0009           _displayColorSequence 0774                           _ADIE 048E  
                         _ADON 04E8                           _WPUA 020C                           _WPUB 020D  
                         _WPUC 020E                           _main 0762                           fsr0h 0005  
                         fsr1h 0007                           indf0 0000                           fsr0l 0004  
                         indf1 0001                           fsr1l 0006                           btemp 007E  
                         start 0002                __end_of_InitApp 0762            _waitForUserSequence 07A8  
               ??_displayColor 0070             _addToColorSequence 0735                          ?_main 0074  
                        _PORTC 000E                          _TRISA 008C                          _TRISB 008D  
                        _TRISC 008E            _ConfigureOscillator 0742          ?_displayColorSequence 0070  
          ?_addToColorSequence 0070           ?_waitForUserSequence 0070                          status 0003  
                        wtemp0 007E           ?_ConfigureOscillator 0070           ??_addToColorSequence 0070  
              __initialization 07F3                   __end_of_main 0774                         ??_main 0078  
        ??_waitForUserSequence 0071                         _ANSELA 018C                         _ANSELB 018D  
                       _ANSELC 018E                      ??_InitApp 0070          ??_ConfigureOscillator 0070  
                displayColor@c 0070         ??_displayColorSequence 0071           __end_of_displayColor 07F3  
      __end_of__initialization 07FD              ?_waitForUserColor 0070             ??_waitForUserColor 0070  
               __pcstackCOMMON 0070   waitForUserSequence@userColor 0072                     __pbssBANK0 0020  
                   __pmaintext 0762    waitForUserSequence@position 0073       __size_of_powerOnSelfTest 0001  
                      _InitApp 0750                        __ptext1 07A8                        __ptext2 0789  
                      __ptext3 0774                        __ptext4 07CC                        __ptext5 0735  
                      __ptext6 0750                        __ptext7 072E                        __ptext8 0742  
        __size_of_displayColor 0027                        clrloop0 0730           end_of_initialization 07FD  
  __size_of_addToColorSequence 000D                   _displayColor 07CC    __end_of_waitForUserSequence 07CC  
  __end_of_ConfigureOscillator 0750              ??_powerOnSelfTest 0070      __size_of_waitForUserColor 001F  
          start_initialization 07F3  __size_of_displayColorSequence 0015   displayColorSequence@position 0072  
                  __pbssCOMMON 0078                      ___latbits 0002                       ?_InitApp 0070  
                _seqenceLength 0079                      clear_ram0 072F               _waitForUserColor 0789  
              _powerOnSelfTest 072E     __end_of_addToColorSequence 0742               __size_of_InitApp 0012  
 __size_of_waitForUserSequence 0024                  __size_of_main 0012   __size_of_ConfigureOscillator 000E  
 __end_of_displayColorSequence 0789        __end_of_powerOnSelfTest 072F                       main@argc 0074  
                     main@argv 0076                     _INTCONbits 000B                  _colorSequence 0020  
     __end_of_waitForUserColor 07A8  
